(dp1
(S'1323049756'
S'42.3680008'
S'-71.1154321'
S'30'
p2
tp3
(lp4
(I221
S'-97'
p5
tp6
a(I219
S'-70'
p7
tp8
a(I214
S'-75'
p9
tp10
a(I185
S'-86'
p11
tp12
a(I213
S'-89'
p13
tp14
a(I220
S'-81'
p15
tp16
as(S'1323050612'
S'42.3679383'
p17
S'-71.1154507'
p18
S'45'
p19
tp20
(lp21
(I223
S'-93'
p22
tp23
a(I221
g22
tp24
a(I219
S'-53'
p25
tp26
a(I214
S'-68'
p27
tp28
a(I213
S'-77'
p29
tp30
a(I220
S'-78'
p31
tp32
a(I191
S'-91'
p33
tp34
a(I185
g33
tp35
as(S'1323048604'
S'42.3677836'
p36
S'-71.1153135'
p37
g2
tp38
(lp39
(I162
S'-90'
p40
tp41
a(I165
S'-76'
p42
tp43
a(I167
g31
tp44
a(I163
g15
tp45
a(I169
g15
tp46
a(I177
g15
tp47
a(I168
S'-82'
p48
tp49
a(I166
g48
tp50
a(I164
g11
tp51
a(I178
S'-87'
p52
tp53
a(I170
S'-88'
p54
tp55
a(I175
g13
tp56
a(I171
g15
tp57
a(I179
S'-92'
p58
tp59
as(S'1323050300'
S'42.3679529'
S'-71.1155758'
g19
tp60
(lp61
(I221
g13
tp62
a(I223
g13
tp63
a(I213
S'-63'
p64
tp65
a(I219
g29
tp66
a(I214
g58
tp67
as(S'1323050552'
S'42.3679068'
S'-71.1154516'
S'50'
p68
tp69
(lp70
(I223
g11
tp71
a(I221
g11
tp72
a(I231
S'-95'
p73
tp74
a(I219
S'-66'
p75
tp76
a(I214
g42
tp77
a(I213
g48
tp78
a(I185
S'-85'
p79
tp80
a(I220
g42
tp81
as(S'1323051698'
S'42.3678824'
p82
S'-71.1158462'
p83
S'60'
p84
tp85
(lp86
(I219
g27
tp87
a(I214
S'-69'
p88
tp89
a(I213
S'-80'
p90
tp91
a(I185
g90
tp92
a(I226
g54
tp93
a(I220
g15
tp94
as(S'1323051622'
g82
g83
g84
tp95
(lp96
(I185
g15
tp97
a(I213
g15
tp98
a(I219
g48
tp99
a(I191
g79
tp100
a(I211
g54
tp101
a(I220
g33
tp102
as(S'1323049330'
S'42.3683063'
S'-71.1155469'
g68
tp103
(lp104
(I209
g27
tp105
a(I211
g27
tp106
a(I185
g29
tp107
a(I195
g15
tp108
a(I191
S'-83'
p109
tp110
a(I212
g11
tp111
a(I204
g109
tp112
a(I209
g27
tp113
a(I211
g27
tp114
a(I185
g29
tp115
a(I195
g15
tp116
a(I191
g109
tp117
a(I212
g11
tp118
a(I204
g109
tp119
a(I209
g27
tp120
a(I211
g27
tp121
a(I185
g29
tp122
a(I195
g15
tp123
a(I191
g109
tp124
a(I212
g11
tp125
a(I204
g109
tp126
as(S'1323051592'
g82
g83
g84
tp127
(lp128
(I224
g79
tp129
a(I221
g13
tp130
a(I223
g13
tp131
a(I219
S'-72'
p132
tp133
a(I213
g42
tp134
a(I214
g42
tp135
a(I185
g79
tp136
a(I220
g109
tp137
a(I226
g33
tp138
a(I191
g58
tp139
as(S'1323052991'
S'42.3679645'
S'-71.1153881'
g68
tp140
(lp141
(I162
g11
tp142
a(I167
g88
tp143
a(I163
S'-73'
p144
tp145
a(I168
g31
tp146
a(I166
g15
tp147
a(I164
S'-84'
p148
tp149
a(I169
g11
tp150
a(I171
g29
tp151
as(S'1323050741'
S'42.3679998'
p152
S'-71.1153821'
p153
g19
tp154
(lp155
(I223
g5
tp156
a(I219
S'-64'
p157
tp158
a(I214
g88
tp159
a(I213
g79
tp160
a(I185
g11
tp161
a(I191
g40
tp162
a(I220
g109
tp163
a(I226
g22
tp164
as(S'1323051932'
S'42.3680197'
p165
S'-71.1155957'
p166
g2
tp167
(lp168
(I213
g90
tp169
a(I209
g54
tp170
a(I192
g54
tp171
a(I211
g148
tp172
as(S'1323049419'
S'42.3681200'
S'-71.1155920'
g68
tp173
(lp174
(I211
S'-71'
p175
tp176
a(I213
S'-79'
p177
tp178
a(I209
g15
tp179
a(I192
g148
tp180
a(I212
g79
tp181
as(S'1323050492'
S'42.3679112'
S'-71.1153800'
g68
tp182
(lp183
(I219
S'-65'
p184
tp185
a(I213
g9
tp186
a(I214
g177
tp187
a(I186
g15
tp188
a(I185
g15
tp189
a(I226
g148
tp190
a(I191
g52
tp191
a(I220
g7
tp192
as(S'1323049836'
S'42.3678204'
S'-71.1153752'
S'40'
p193
tp194
(lp195
(I221
g148
tp196
a(I223
g79
tp197
a(I232
g73
tp198
a(I219
g64
tp199
a(I214
g144
tp200
a(I185
g11
tp201
a(I220
g109
tp202
a(I226
g58
tp203
a(I233
g73
tp204
a(I213
S'-96'
p205
tp206
as(S'1323050831'
S'42.3680106'
p207
S'-71.1153690'
p208
S'25'
p209
tp210
(lp211
(I221
g22
tp212
a(I219
S'-58'
p213
tp214
a(I214
g29
tp215
a(I213
g90
tp216
a(I185
g109
tp217
a(I220
g157
tp218
as(S'1323049500'
S'42.3679640'
S'-71.1156999'
g193
tp219
(lp220
(I224
S'-94'
p221
tp222
a(I221
S'-98'
p223
tp224
a(I213
g144
tp225
a(I219
S'-74'
p226
tp227
a(I214
g109
tp228
a(I185
g13
tp229
a(I220
g11
tp230
a(I222
g33
tp231
as(S'1323050138'
S'42.3681696'
S'-71.1151432'
g193
tp232
(lp233
(I162
g22
tp234
a(I215
g221
tp235
a(I182
g88
tp236
a(I185
g226
tp237
a(I183
g9
tp238
a(I248
g15
tp239
a(I216
g15
tp240
a(I192
g109
tp241
a(I195
g109
tp242
a(I188
g15
tp243
a(I171
g52
tp244
a(I198
g48
tp245
as(S'1323050816'
g207
g208
S'15'
p246
tp247
(lp248
(I260
g205
tp249
a(I219
g175
tp250
a(I214
g144
tp251
a(I213
g109
tp252
a(I220
g132
tp253
as(S'1323052107'
S'42.3682010'
S'-71.1152006'
g68
tp254
(lp255
(I276
g29
tp256
a(I277
g54
tp257
a(I176
g13
tp258
a(I278
g33
tp259
a(I279
g73
tp260
a(I280
g33
tp261
as(S'1323049494'
S'42.3679947'
S'-71.1158140'
g2
tp262
(lp263
(I223
g33
tp264
a(I224
g33
tp265
a(I221
g58
tp266
a(I225
g73
tp267
a(I213
g9
tp268
a(I219
g31
tp269
a(I214
g79
tp270
a(I220
g79
tp271
a(I226
g58
tp272
as(S'1323051041'
g165
g166
g2
tp273
(lp274
(I224
g205
tp275
a(I219
g75
tp276
a(I213
g29
tp277
a(I214
g15
tp278
a(I185
g148
tp279
a(I220
g79
tp280
as(S'1323051329'
g165
g166
g2
tp281
(lp282
(I219
g175
tp283
a(I214
g90
tp284
a(I185
g11
tp285
a(I213
g52
tp286
a(I191
g13
tp287
a(I220
g52
tp288
as(S'1323051170'
g165
g166
g2
tp289
(lp290
(I224
g33
tp291
a(I221
g73
tp292
a(I260
g73
tp293
a(I219
g132
tp294
a(I214
g42
tp295
a(I213
g90
tp296
a(I185
g48
tp297
a(I220
g90
tp298
as(S'1323051902'
g165
g166
g2
tp299
(lp300
(I223
g73
tp301
a(I221
g205
tp302
a(I213
g132
tp303
a(I219
g90
tp304
a(I185
g54
tp305
a(I214
g33
tp306
a(I222
g33
tp307
a(I220
g52
tp308
as(S'1323051451'
p309
g82
g83
g84
tp310
(lp311
(I223
g54
tp312
a(I221
g54
tp313
a(I213
g64
tp314
a(I219
g148
tp315
a(I214
g13
tp316
a(I220
g54
tp317
as(S'1323049533'
S'42.3680223'
S'-71.1155815'
g2
tp318
(lp319
(I221
g33
tp320
a(I219
g175
tp321
a(I214
g9
tp322
a(I213
g31
tp323
a(I185
g109
tp324
a(I220
g15
tp325
as(S'1323050674'
S'42.3679199'
S'-71.1155051'
g19
tp326
(lp327
(I221
g5
tp328
a(I219
S'-57'
p329
tp330
a(I214
S'-67'
p331
tp332
a(I213
g79
tp333
a(I185
g11
tp334
a(I220
g90
tp335
as(S'1323050907'
g165
g166
g2
tp336
(lp337
(I223
g73
tp338
a(I260
g58
tp339
a(I219
g90
tp340
a(I214
g90
tp341
a(I213
g148
tp342
a(I220
g48
tp343
as(S'1323049105'
S'42.3682232'
S'-71.1157502'
g68
tp344
(lp345
(I195
S'-59'
p346
tp347
a(I192
g144
tp348
a(I198
g109
tp349
a(I185
g54
tp350
a(I201
g13
tp351
a(I204
g13
tp352
a(I196
g221
tp353
as(S'1323050443'
S'42.3679917'
S'-71.1155046'
g68
tp354
(lp355
(I223
g33
tp356
a(I219
g346
tp357
a(I214
g88
tp358
a(I213
g226
tp359
a(I185
g31
tp360
a(I191
g48
tp361
a(I220
g29
tp362
as(S'1323051517'
g82
g83
g84
tp363
(lp364
(I223
g58
tp365
a(I219
g144
tp366
a(I213
g177
tp367
a(I214
g148
tp368
as(S'1323050965'
g165
g166
g2
tp369
(lp370
(I219
g226
tp371
a(I213
g48
tp372
a(I214
g148
tp373
a(I185
g40
tp374
a(I220
g148
tp375
as(S'1323049457'
S'42.3680893'
S'-71.1156861'
g2
tp376
(lp377
(I219
g15
tp378
a(I211
g48
tp379
a(I213
g11
tp380
a(I220
g90
tp381
as(S'1323050659'
S'42.3679257'
S'-71.1155347'
g19
tp382
(lp383
(I223
g40
tp384
a(I221
g33
tp385
a(I231
g73
tp386
a(I260
g73
tp387
a(I219
g7
tp388
a(I214
g177
tp389
a(I213
g90
tp390
a(I220
g42
tp391
a(I191
g33
tp392
as(S'1323049120'
S'42.3683069'
S'-71.1156580'
g68
tp393
(lp394
(I195
g157
tp395
a(I192
g157
tp396
a(I197
g90
tp397
a(I187
g48
tp398
a(I196
g148
tp399
a(I185
g79
tp400
a(I198
g213
tp401
as(S'1323051885'
g165
g166
g2
tp402
(lp403
(I221
g58
tp404
a(I219
g42
tp405
a(I213
g90
tp406
a(I214
g148
tp407
a(I220
g109
tp408
as(S'1323049517'
S'42.3679409'
S'-71.1156654'
g19
tp409
(lp410
(I219
g226
tp411
a(I214
g226
tp412
a(I213
g15
tp413
a(I220
g177
tp414
as(S'1323051764'
g165
g166
g2
tp415
(lp416
(I224
g13
tp417
a(I221
g58
tp418
a(I223
g22
tp419
a(I219
g144
tp420
a(I213
g29
tp421
a(I185
g11
tp422
a(I186
g52
tp423
a(I214
g54
tp424
a(I220
g109
tp425
a(I226
g58
tp426
as(S'1323050079'
S'42.3683702'
S'-71.1153030'
S'10'
p427
tp428
(lp429
(I185
g75
tp430
a(I182
g7
tp431
a(I192
g226
tp432
a(I208
g15
tp433
a(I195
g48
tp434
a(I216
g109
tp435
a(I237
g148
tp436
a(I226
g52
tp437
a(I186
g54
tp438
a(I246
g13
tp439
a(I251
g33
tp440
a(I204
g33
tp441
a(I240
g22
tp442
a(I188
g40
tp443
a(I194
g52
tp444
as(S'1323051314'
g165
g166
g2
tp445
(lp446
(I219
g64
tp447
a(I214
g177
tp448
a(I213
g109
tp449
a(I220
g177
tp450
a(I191
g22
tp451
as(S'1323141838'
S'42.3712627'
S'-71.1168151'
S'217'
tp452
(lp453
(I275
g144
tp454
a(I272
g226
tp455
a(I747
g226
tp456
a(I748
g11
tp457
a(I749
g54
tp458
a(I750
g13
tp459
a(I751
g13
tp460
a(I225
g40
tp461
a(I221
g40
tp462
a(I752
g33
tp463
a(I753
g33
tp464
a(I754
g226
tp465
a(I260
g226
tp466
a(I755
g79
tp467
a(I180
g79
tp468
a(I259
g11
tp469
a(I756
g13
tp470
a(I757
g22
tp471
a(I758
g13
tp472
as(S'1323049989'
S'42.3685862'
S'-71.1152406'
g209
tp473
(lp474
(I189
g148
tp475
a(I215
g79
tp476
a(I195
g64
tp477
a(I185
g132
tp478
a(I182
g144
tp479
a(I243
g109
tp480
a(I241
g11
tp481
a(I183
g52
tp482
a(I188
g11
tp483
a(I244
g33
tp484
a(I245
g33
tp485
a(I246
g22
tp486
a(I189
g148
tp487
a(I215
g79
tp488
a(I195
g64
tp489
a(I185
g132
tp490
a(I182
g144
tp491
a(I243
g109
tp492
a(I241
g11
tp493
a(I183
g52
tp494
a(I188
g11
tp495
a(I244
g33
tp496
a(I245
g33
tp497
a(I246
g22
tp498
as(S'1323052067'
S'42.3681974'
S'-71.1151847'
g427
tp499
(lp500
(I162
g11
tp501
a(I275
g205
tp502
a(I183
g88
tp503
a(I182
g52
tp504
a(I171
g9
tp505
a(I188
g11
tp506
a(I185
g40
tp507
a(I164
g205
tp508
as(S'1323050996'
g165
g166
g2
tp509
(lp510
(I223
g11
tp511
a(I221
g11
tp512
a(I219
g7
tp513
a(I213
g48
tp514
a(I214
g48
tp515
a(I220
g148
tp516
a(I191
g22
tp517
a(I226
g22
tp518
a(I81
g205
tp519
as(S'1323050109'
S'42.3685037'
S'-71.1151586'
g193
tp520
(lp521
(I189
g109
tp522
a(I195
g27
tp523
a(I182
g132
tp524
a(I255
g9
tp525
a(I185
g177
tp526
a(I241
g177
tp527
a(I238
g48
tp528
a(I183
g48
tp529
a(I235
g79
tp530
a(I242
g40
tp531
a(I188
g148
tp532
a(I256
g11
tp533
a(I189
g109
tp534
a(I195
g27
tp535
a(I182
g132
tp536
a(I255
g9
tp537
a(I185
g177
tp538
a(I241
g177
tp539
a(I238
g48
tp540
a(I183
g48
tp541
a(I235
g79
tp542
a(I242
g40
tp543
a(I188
g148
tp544
a(I256
g11
tp545
as(S'1323050394'
S'42.3679411'
S'-71.1158315'
g68
tp546
(lp547
(I219
S'-49'
p548
tp549
a(I214
g329
tp550
a(I191
g29
tp551
a(I213
g177
tp552
a(I220
g7
tp553
as(S'1323051260'
g165
g166
g2
tp554
(lp555
(I224
g33
tp556
a(I219
S'-62'
p557
tp558
a(I214
g9
tp559
a(I191
g11
tp560
a(I213
g11
tp561
a(I185
g54
tp562
a(I220
g15
tp563
as(S'1323048618'
g36
g37
g2
tp564
(lp565
(I168
g109
tp566
a(I167
g109
tp567
a(I165
g58
tp568
a(I168
g109
tp569
a(I167
g109
tp570
a(I165
g58
tp571
a(I168
g109
tp572
a(I167
g109
tp573
a(I165
g58
tp574
as(S'1323051340'
g165
g166
g2
tp575
(lp576
(I260
g205
tp577
a(I219
g557
tp578
a(I214
g175
tp579
a(I191
g54
tp580
a(I213
g13
tp581
a(I185
g40
tp582
a(I220
g79
tp583
as(S'1323051728'
g165
g166
g2
tp584
(lp585
(I221
g205
tp586
a(I213
g9
tp587
a(I219
g109
tp588
a(I214
g52
tp589
a(I185
g54
tp590
a(I220
g13
tp591
as(S'1323050290'
S'42.3681051'
S'-71.1153715'
g19
tp592
(lp593
(I223
g5
tp594
a(I219
g31
tp595
a(I213
g177
tp596
a(I214
g109
tp597
a(I211
g54
tp598
a(I220
g148
tp599
a(I223
g5
tp600
a(I219
g31
tp601
a(I213
g177
tp602
a(I214
g109
tp603
a(I211
g54
tp604
a(I220
g148
tp605
as(S'1323051160'
g165
g166
g2
tp606
(lp607
(I219
g226
tp608
a(I214
g42
tp609
a(I213
g109
tp610
a(I185
g52
tp611
a(I220
g177
tp612
as(S'1323049090'
S'42.3682940'
S'-71.1156768'
g68
tp613
(lp614
(I200
g22
tp615
a(I195
g88
tp616
a(I201
g40
tp617
a(I198
g184
tp618
as(S'1323051964'
g165
g166
g2
tp619
(lp620
(I209
g175
tp621
a(I211
g144
tp622
a(I192
g226
tp623
a(I185
g9
tp624
a(I191
g90
tp625
a(I212
g90
tp626
a(I213
g54
tp627
a(I214
g40
tp628
a(I204
g54
tp629
as(S'1323051562'
g82
g83
g84
tp630
(lp631
(I223
g40
tp632
a(I272
g22
tp633
a(I221
g221
tp634
a(I259
g221
tp635
a(I219
g64
tp636
a(I214
g175
tp637
a(I213
g148
tp638
a(I185
g52
tp639
a(I191
g13
tp640
a(I220
g42
tp641
a(I186
g221
tp642
as(S'1323050802'
g207
g208
g209
tp643
(lp644
(I223
g109
tp645
a(I221
g148
tp646
a(I264
g73
tp647
a(I265
g205
tp648
a(I259
g40
tp649
a(I219
g64
tp650
a(I214
g175
tp651
a(I213
g109
tp652
a(I191
g13
tp653
a(I220
g175
tp654
a(I186
g58
tp655
as(S'1323051713'
g165
g166
g2
tp656
(lp657
(I213
g90
tp658
a(I219
g90
tp659
a(I214
g148
tp660
a(I220
g13
tp661
as(S'1323050861'
S'42.3679784'
p662
S'-71.1154668'
p663
g209
tp664
(lp665
(I231
g5
tp666
a(I219
g132
tp667
a(I214
g226
tp668
a(I213
g29
tp669
a(I185
g22
tp670
a(I220
g13
tp671
as(S'1323048535'
S'42.3679728'
p672
S'-71.1153304'
p673
g68
tp674
(lp675
(I162
g79
tp676
a(I167
g29
tp677
a(I163
g109
tp678
a(I168
g11
tp679
a(I170
g40
tp680
a(I171
g144
tp681
a(I174
g79
tp682
a(I173
g90
tp683
a(I175
g58
tp684
as(S'1323048684'
S'42.3731043'
p685
S'-71.1136761'
p686
g68
tp687
(lp688
(I189
g13
tp689
a(I185
g157
tp690
a(I190
g29
tp691
a(I191
g148
tp692
a(I192
g79
tp693
a(I182
g40
tp694
a(I193
g40
tp695
a(I194
g54
tp696
as(S'1323051472'
g82
g83
g84
tp697
(lp698
(I221
g22
tp699
a(I223
g221
tp700
a(I213
g88
tp701
a(I226
g11
tp702
a(I185
g13
tp703
a(I214
g58
tp704
a(I220
g40
tp705
as(S'1323049786'
S'42.3678304'
S'-71.1155681'
g193
tp706
(lp707
(I223
g22
tp708
a(I219
g9
tp709
a(I214
g15
tp710
a(I213
g79
tp711
a(I220
g90
tp712
a(I185
g73
tp713
as(S'1323048489'
g672
g673
g68
tp714
(lp715
(I162
g90
tp716
a(I167
g144
tp717
a(I163
g177
tp718
a(I166
g90
tp719
a(I170
g79
tp720
a(I168
g11
tp721
a(I164
g54
tp722
a(I165
g13
tp723
a(I171
g175
tp724
a(I173
g177
tp725
a(I175
g58
tp726
a(I176
g58
tp727
a(I174
g22
tp728
as(S'1323051012'
g165
g166
g2
tp729
(lp730
(I221
g13
tp731
a(I223
g58
tp732
a(I219
g175
tp733
a(I213
g79
tp734
a(I214
g54
tp735
a(I185
g13
tp736
a(I220
g79
tp737
a(I226
g58
tp738
as(S'1323050261'
p739
S'42.3682020'
S'-71.1153640'
g68
tp740
(lp741
(I209
g88
tp742
a(I211
g226
tp743
a(I185
g226
tp744
a(I208
g42
tp745
a(I192
g48
tp746
a(I191
g109
tp747
a(I226
g79
tp748
a(I190
g11
tp749
as(S'1323050323'
S'42.3679266'
S'-71.1157606'
g19
tp750
(lp751
(I221
g58
tp752
a(I219
g31
tp753
a(I213
g15
tp754
a(I214
g11
tp755
a(I220
g79
tp756
as(S'1323049372'
S'42.3685450'
S'-71.1156409'
g68
tp757
(lp758
(I192
g175
tp759
a(I208
g9
tp760
a(I209
g9
tp761
a(I204
g177
tp762
a(I185
g15
tp763
a(I191
g48
tp764
a(I195
g13
tp765
a(I194
g33
tp766
a(I218
g205
tp767
as(S'1323051051'
g165
g166
g2
tp768
(lp769
(I223
g223
tp770
a(I219
g48
tp771
a(I214
g148
tp772
a(I213
g11
tp773
a(I220
g9
tp774
as(S'1323049408'
S'42.3682266'
S'-71.1157483'
g68
tp775
(lp776
(I211
g184
tp777
a(I185
g79
tp778
a(I213
g52
tp779
a(I191
g54
tp780
a(I212
g79
tp781
a(I214
g22
tp782
a(I209
g22
tp783
as(S'1323049177'
S'42.3683745'
S'-71.1154029'
g68
tp784
(lp785
(I189
g48
tp786
a(I192
S'-55'
p787
tp788
a(I185
g29
tp789
a(I195
g31
tp790
a(I191
g79
tp791
a(I208
g79
tp792
a(I182
g11
tp793
a(I190
g54
tp794
a(I209
g40
tp795
a(I204
g175
tp796
a(I188
g58
tp797
as(S'1323050537'
S'42.3679328'
S'-71.1154656'
g68
tp798
(lp799
(I219
S'-42'
tp800
a(I214
g346
tp801
a(I191
g7
tp802
a(I185
g79
tp803
a(I213
g79
tp804
a(I220
g184
tp805
as(S'1323050522'
S'42.3679233'
p806
S'-71.1154046'
p807
g19
tp808
(lp809
(I221
g13
tp810
a(I223
g13
tp811
a(I220
g184
tp812
a(I219
g175
tp813
a(I214
g226
tp814
a(I213
g177
tp815
a(I186
g52
tp816
a(I185
g54
tp817
a(I191
g40
tp818
a(I227
g33
tp819
as(S'1323051215'
g165
g166
g2
tp820
(lp821
(I223
g13
tp822
a(I219
g184
tp823
a(I214
g42
tp824
a(I185
g79
tp825
a(I213
g52
tp826
a(I191
g54
tp827
a(I220
g15
tp828
as(S'1323051684'
g82
g83
g84
tp829
(lp830
(I223
g54
tp831
a(I219
g157
tp832
a(I214
g132
tp833
a(I213
g148
tp834
a(I191
g13
tp835
a(I220
g175
tp836
as(S'1323049282'
S'42.3684333'
S'-71.1155174'
g19
tp837
(lp838
(I192
S'-61'
p839
tp840
a(I209
g226
tp841
a(I185
g31
tp842
a(I208
g31
tp843
a(I195
g177
tp844
a(I191
g79
tp845
a(I193
g13
tp846
a(I204
g40
tp847
a(I192
g839
tp848
a(I209
g226
tp849
a(I185
g31
tp850
a(I208
g31
tp851
a(I195
g177
tp852
a(I191
g79
tp853
a(I193
g13
tp854
a(I204
g40
tp855
as(S'1323049266'
S'42.3684709'
S'-71.1155060'
g68
tp856
(lp857
(I215
g58
tp858
a(I192
S'-38'
p859
tp860
a(I208
g15
tp861
a(I195
g48
tp862
a(I185
g52
tp863
a(I216
g40
tp864
a(I204
g226
tp865
a(I217
g58
tp866
a(I188
g33
tp867
as(S'1323049630'
S'42.3681332'
S'-71.1156450'
g19
tp868
(lp869
(I220
g839
tp870
a(I219
g557
tp871
a(I214
g75
tp872
a(I185
g31
tp873
a(I191
g79
tp874
a(I213
g40
tp875
a(I227
g40
tp876
as(S'1323050771'
S'42.3680244'
S'-71.1153473'
g193
tp877
(lp878
(I260
g73
tp879
a(I219
g132
tp880
a(I214
g29
tp881
a(I213
g54
tp882
a(I226
g40
tp883
a(I220
g157
tp884
a(I185
g58
tp885
a(I191
g73
tp886
as(S'1323050718'
g152
g153
g19
tp887
(lp888
(I224
g79
tp889
a(I223
g13
tp890
a(I219
g331
tp891
a(I213
g148
tp892
a(I214
g148
tp893
a(I220
g9
tp894
as(S'1323051862'
g165
g166
g2
tp895
(lp896
(I219
g7
tp897
a(I214
g29
tp898
a(I213
g48
tp899
a(I191
g52
tp900
a(I220
g177
tp901
as(S'1323050629'
g17
g18
g19
tp902
(lp903
(I223
g11
tp904
a(I221
g52
tp905
a(I263
g22
tp906
a(I219
S'-56'
p907
tp908
a(I214
g48
tp909
a(I213
g13
tp910
a(I220
g29
tp911
as(S'1323051384'
g165
g166
g2
tp912
(lp913
(I223
g54
tp914
a(I221
g54
tp915
a(I224
g33
tp916
a(I214
g132
tp917
a(I219
g9
tp918
a(I213
g109
tp919
a(I220
g29
tp920
a(I261
g205
tp921
as(S'1323049251'
S'42.3683812'
S'-71.1157477'
g68
tp922
(lp923
(I192
S'-51'
p924
tp925
a(I191
g9
tp926
a(I209
g29
tp927
a(I195
g31
tp928
a(I208
g79
tp929
a(I211
g11
tp930
a(I204
g11
tp931
a(I190
g40
tp932
a(I194
g40
tp933
as(S'1323051502'
g82
g83
g84
tp934
(lp935
(I271
g22
tp936
a(I219
g132
tp937
a(I213
g29
tp938
a(I214
g11
tp939
a(I220
g79
tp940
as(S'1323051846'
g165
g166
g2
tp941
(lp942
(I219
g88
tp943
a(I214
g29
tp944
a(I213
g109
tp945
a(I191
g11
tp946
a(I185
g13
tp947
a(I220
g177
tp948
as(S'1323050567'
S'42.3679109'
S'-71.1154782'
g19
tp949
(lp950
(I219
g924
tp951
a(I214
g557
tp952
a(I213
g109
tp953
a(I185
g148
tp954
a(I191
g11
tp955
a(I220
g157
tp956
as(S'1323051818'
g165
g166
g2
tp957
(lp958
(I224
g54
tp959
a(I223
g205
tp960
a(I219
g64
tp961
a(I214
g177
tp962
a(I213
g48
tp963
a(I185
g54
tp964
a(I220
g11
tp965
as(S'1323051026'
g165
g166
g2
tp966
(lp967
(I219
g88
tp968
a(I213
g90
tp969
a(I214
g90
tp970
a(I226
g148
tp971
a(I185
g79
tp972
a(I220
g54
tp973
as(S'1323049472'
S'42.3680686'
S'-71.1158518'
g193
tp974
(lp975
(I221
g73
tp976
a(I213
g184
tp977
a(I219
g226
tp978
a(I211
g79
tp979
a(I214
g79
tp980
a(I222
g79
tp981
a(I220
g52
tp982
as(S'1323049546'
S'42.3679783'
S'-71.1155320'
g19
tp983
(lp984
(I223
g22
tp985
a(I219
g331
tp986
a(I214
g226
tp987
a(I213
g15
tp988
a(I226
g13
tp989
a(I220
g184
tp990
a(I191
g22
tp991
as(S'1323051369'
g165
g166
g2
tp992
(lp993
(I221
g58
tp994
a(I219
g213
tp995
a(I214
g184
tp996
a(I213
g42
tp997
a(I185
g15
tp998
a(I191
g148
tp999
a(I220
g7
tp1000
a(I226
g58
tp1001
as(S'1323051803'
g165
g166
g2
tp1002
(lp1003
(I224
g22
tp1004
a(I221
g22
tp1005
a(I219
g144
tp1006
a(I213
g15
tp1007
a(I214
g15
tp1008
a(I185
g13
tp1009
a(I220
g11
tp1010
as(S'1323051200'
g165
g166
g2
tp1011
(lp1012
(I221
g22
tp1013
a(I224
g205
tp1014
a(I219
g175
tp1015
a(I214
g42
tp1016
a(I213
g109
tp1017
a(I185
g11
tp1018
a(I220
g11
tp1019
as(S'1323049771'
S'42.3679468'
S'-71.1154224'
g2
tp1020
(lp1021
(I223
g54
tp1022
a(I219
g226
tp1023
a(I213
g48
tp1024
a(I214
g109
tp1025
a(I220
g177
tp1026
a(I185
g33
tp1027
as(S'1323049162'
S'42.3683666'
S'-71.1155022'
g68
tp1028
(lp1029
(I192
g907
tp1030
a(I195
g132
tp1031
a(I208
g79
tp1032
a(I209
g11
tp1033
a(I204
g90
tp1034
a(I183
g58
tp1035
as(S'1323049716'
S'42.3679863'
S'-71.1155061'
g193
tp1036
(lp1037
(I221
g58
tp1038
a(I231
g205
tp1039
a(I219
g184
tp1040
a(I214
g88
tp1041
a(I213
g177
tp1042
a(I185
g90
tp1043
a(I220
g31
tp1044
as(S'1323050756'
S'42.3680101'
S'-71.1153761'
g19
tp1045
(lp1046
(I221
g58
tp1047
a(I231
g205
tp1048
a(I219
g27
tp1049
a(I185
g175
tp1050
a(I214
g175
tp1051
a(I213
g29
tp1052
a(I220
g148
tp1053
as(S'1323051079'
g165
g166
g2
tp1054
(lp1055
(I224
g58
tp1056
a(I223
g22
tp1057
a(I219
g27
tp1058
a(I214
g42
tp1059
a(I213
g15
tp1060
a(I191
g54
tp1061
a(I220
g79
tp1062
as(S'1323136061'
S'42.3712375'
S'-71.1147757'
g84
tp1063
(lp1064
(I731
g226
tp1065
a(I732
g54
tp1066
a(I733
g205
tp1067
a(I734
g64
tp1068
a(I735
g15
tp1069
a(I736
g907
tp1070
a(I737
g33
tp1071
a(I738
g54
tp1072
as(S'1323050225'
S'42.3683185'
S'-71.1154113'
g68
tp1073
(lp1074
(I185
g9
tp1075
a(I208
g42
tp1076
a(I192
g29
tp1077
a(I195
g40
tp1078
a(I190
g58
tp1079
a(I204
g40
tp1080
as(S'1323052027'
g165
g166
g2
tp1081
(lp1082
(I189
g205
tp1083
a(I192
g346
tp1084
a(I185
g7
tp1085
a(I190
g132
tp1086
a(I191
g148
tp1087
a(I182
g33
tp1088
a(I194
g52
tp1089
a(I204
g58
tp1090
a(I189
g205
tp1091
a(I192
g346
tp1092
a(I185
g7
tp1093
a(I190
g132
tp1094
a(I191
g148
tp1095
a(I182
g33
tp1096
a(I194
g52
tp1097
a(I204
g58
tp1098
as(S'1323050704'
S'42.3680007'
S'-71.1153793'
p1099
g19
tp1100
(lp1101
(I223
g205
tp1102
a(I219
g346
tp1103
a(I214
g557
tp1104
a(I213
g42
tp1105
a(I185
g31
tp1106
a(I191
g40
tp1107
a(I220
g175
tp1108
as(S'1323110420'
S'42.3661909'
S'-71.1171731'
S'866'
tp1109
(lp1110
(I162
g13
tp1111
a(I167
g27
tp1112
a(I163
g175
tp1113
a(I165
g177
tp1114
a(I166
g109
tp1115
a(I168
g148
tp1116
a(I177
g79
tp1117
a(I164
g11
tp1118
a(I631
g11
tp1119
a(I175
g52
tp1120
a(I171
g331
tp1121
a(I173
g48
tp1122
a(I170
g33
tp1123
a(I632
g5
tp1124
a(I174
g223
tp1125
a(I188
g223
tp1126
as(S'1323136661'
S'42.3712268'
S'-71.1147642'
g84
tp1127
(lp1128
(I731
g64
tp1129
a(I739
g148
tp1130
a(I740
g54
tp1131
a(I732
g73
tp1132
a(I734
g7
tp1133
a(I735
g42
tp1134
a(I741
g73
tp1135
a(I738
g79
tp1136
a(I737
g40
tp1137
a(I736
S'-54'
p1138
tp1139
as(S'1323049217'
S'42.3683368'
S'-71.1158260'
g68
tp1140
(lp1141
(I192
g7
tp1142
a(I209
g177
tp1143
a(I195
g90
tp1144
a(I190
g15
tp1145
a(I185
g48
tp1146
a(I208
g148
tp1147
a(I191
g52
tp1148
a(I204
g175
tp1149
as(S'1323050922'
g165
g166
g2
tp1150
(lp1151
(I223
g58
tp1152
a(I219
g175
tp1153
a(I213
g226
tp1154
a(I214
g148
tp1155
a(I220
g15
tp1156
as(S'1323049297'
S'42.3682691'
S'-71.1156113'
g19
tp1157
(lp1158
(I209
g157
tp1159
a(I211
g75
tp1160
a(I212
g42
tp1161
a(I185
g90
tp1162
a(I192
g90
tp1163
a(I195
g109
tp1164
a(I191
g11
tp1165
a(I204
g148
tp1166
a(I213
g33
tp1167
a(I214
g58
tp1168
a(I209
g157
tp1169
a(I211
g75
tp1170
a(I212
g42
tp1171
a(I185
g90
tp1172
a(I192
g90
tp1173
a(I195
g109
tp1174
a(I191
g11
tp1175
a(I204
g148
tp1176
a(I213
g33
tp1177
a(I214
g58
tp1178
a(I209
g157
tp1179
a(I211
g75
tp1180
a(I212
g42
tp1181
a(I185
g90
tp1182
a(I192
g90
tp1183
a(I195
g109
tp1184
a(I191
g11
tp1185
a(I204
g148
tp1186
a(I213
g33
tp1187
a(I214
g58
tp1188
as(S'1323050123'
S'42.3685627'
S'-71.1155893'
S'39'
p1189
tp1190
(lp1191
(I215
g42
tp1192
a(I182
g64
tp1193
a(I185
g226
tp1194
a(I247
g42
tp1195
a(I186
g29
tp1196
a(I248
g31
tp1197
a(I195
g177
tp1198
a(I245
g11
tp1199
a(I257
g13
tp1200
a(I244
g13
tp1201
a(I256
g40
tp1202
a(I188
g79
tp1203
a(I171
g11
tp1204
a(I258
g40
tp1205
as(S'1323050338'
S'42.3679161'
S'-71.1158541'
g68
tp1206
(lp1207
(I221
g73
tp1208
a(I219
g157
tp1209
a(I214
g27
tp1210
a(I220
g9
tp1211
a(I213
g11
tp1212
a(I227
g11
tp1213
as(S'1323050582'
S'42.3679139'
S'-71.1154834'
g19
tp1214
(lp1215
(I221
g11
tp1216
a(I223
g11
tp1217
a(I231
g13
tp1218
a(I262
g22
tp1219
a(I260
g58
tp1220
a(I259
g205
tp1221
a(I219
g346
tp1222
a(I213
g42
tp1223
a(I214
g42
tp1224
a(I191
g11
tp1225
a(I220
g29
tp1226
as(S'1323049434'
S'42.3680403'
S'-71.1154939'
g19
tp1227
(lp1228
(I211
g11
tp1229
a(I213
g29
tp1230
a(I211
g11
tp1231
a(I213
g29
tp1232
as(S'1323050891'
S'42.3680277'
S'-71.1154978'
g193
tp1233
(lp1234
(I224
g33
tp1235
a(I219
g839
tp1236
a(I214
g42
tp1237
a(I213
g48
tp1238
a(I185
g148
tp1239
a(I220
g109
tp1240
a(I191
g22
tp1241
as(S'1323050065'
S'42.3681622'
g1099
g193
tp1242
(lp1243
(I189
g52
tp1244
a(I215
g15
tp1245
a(I182
g64
tp1246
a(I185
g331
tp1247
a(I192
g132
tp1248
a(I198
g90
tp1249
a(I195
g90
tp1250
a(I216
g15
tp1251
a(I186
g48
tp1252
a(I244
g109
tp1253
a(I248
g11
tp1254
a(I245
g13
tp1255
a(I241
g13
tp1256
a(I188
g15
tp1257
a(I250
g22
tp1258
a(I204
g13
tp1259
a(I242
g5
tp1260
as(S'1323051398'
g165
g166
g2
tp1261
(lp1262
(I219
g7
tp1263
a(I214
g132
tp1264
a(I185
g109
tp1265
a(I213
g148
tp1266
a(I220
g48
tp1267
as(S'1323049192'
S'42.3682614'
S'-71.1155075'
g68
tp1268
(lp1269
(I192
g25
tp1270
a(I208
g9
tp1271
a(I185
g48
tp1272
a(I190
g79
tp1273
a(I195
g54
tp1274
a(I182
g54
tp1275
a(I188
g13
tp1276
a(I204
g48
tp1277
a(I211
g205
tp1278
a(I192
g25
tp1279
a(I208
g9
tp1280
a(I185
g48
tp1281
a(I190
g79
tp1282
a(I195
g54
tp1283
a(I182
g54
tp1284
a(I188
g13
tp1285
a(I204
g48
tp1286
a(I211
g205
tp1287
a(I192
g25
tp1288
a(I208
g9
tp1289
a(I185
g48
tp1290
a(I190
g79
tp1291
a(I195
g54
tp1292
a(I182
g54
tp1293
a(I188
g13
tp1294
a(I204
g48
tp1295
a(I211
g205
tp1296
as(S'1323051299'
g165
g166
g2
tp1297
(lp1298
(I214
g144
tp1299
a(I219
g226
tp1300
a(I213
g52
tp1301
a(I185
g54
tp1302
a(I220
g29
tp1303
as(S'1323050980'
g165
g166
g2
tp1304
(lp1305
(I223
g33
tp1306
a(I219
g7
tp1307
a(I214
g109
tp1308
a(I213
g79
tp1309
a(I191
g13
tp1310
a(I220
g52
tp1311
as(S'1323051284'
g165
g166
g2
tp1312
(lp1313
(I267
g223
tp1314
a(I219
g157
tp1315
a(I214
g144
tp1316
a(I213
g48
tp1317
a(I185
g79
tp1318
a(I220
g79
tp1319
as(S'1323049387'
S'42.3683857'
S'-71.1157994'
g68
tp1320
(lp1321
(I209
g184
tp1322
a(I211
g42
tp1323
a(I212
g31
tp1324
a(I192
g177
tp1325
a(I191
g48
tp1326
a(I185
g109
tp1327
a(I195
g79
tp1328
a(I213
g54
tp1329
a(I204
g148
tp1330
a(I214
g22
tp1331
a(I171
g73
tp1332
as(S'1323050458'
S'42.3679889'
S'-71.1154788'
g19
tp1333
(lp1334
(I224
g11
tp1335
a(I260
g205
tp1336
a(I219
g184
tp1337
a(I214
g31
tp1338
a(I213
g79
tp1339
a(I185
g11
tp1340
a(I220
g15
tp1341
a(I191
g33
tp1342
a(I261
g22
tp1343
as(S'1323051778'
g165
g166
g2
tp1344
(lp1345
(I221
g58
tp1346
a(I223
g22
tp1347
a(I260
g205
tp1348
a(I219
g27
tp1349
a(I213
g48
tp1350
a(I185
g11
tp1351
a(I214
g13
tp1352
a(I220
g79
tp1353
as(S'1323050952'
g165
g166
g2
tp1354
(lp1355
(I221
g73
tp1356
a(I224
g73
tp1357
a(I219
g7
tp1358
a(I214
g31
tp1359
a(I213
g15
tp1360
a(I185
g79
tp1361
a(I226
g79
tp1362
a(I220
g11
tp1363
a(I191
g33
tp1364
as(S'1323051269'
g165
g166
g2
tp1365
(lp1366
(I221
g13
tp1367
a(I223
g40
tp1368
a(I214
g157
tp1369
a(I219
g27
tp1370
a(I213
g79
tp1371
a(I220
g31
tp1372
a(I185
g22
tp1373
a(I261
g223
tp1374
as(S'1323050004'
S'42.3685736'
S'-71.1151470'
g2
tp1375
(lp1376
(I189
g79
tp1377
a(I182
g132
tp1378
a(I195
g226
tp1379
a(I185
g42
tp1380
a(I245
g15
tp1381
a(I187
g48
tp1382
a(I238
g48
tp1383
a(I241
g109
tp1384
a(I247
g148
tp1385
a(I188
g48
tp1386
a(I171
g221
tp1387
a(I189
g79
tp1388
a(I182
g132
tp1389
a(I195
g226
tp1390
a(I185
g42
tp1391
a(I245
g15
tp1392
a(I187
g48
tp1393
a(I238
g48
tp1394
a(I241
g109
tp1395
a(I247
g148
tp1396
a(I188
g48
tp1397
a(I171
g221
tp1398
as(S'1323051354'
g165
g166
g2
tp1399
(lp1400
(I223
g223
tp1401
a(I219
g331
tp1402
a(I214
g144
tp1403
a(I213
g42
tp1404
a(I191
g11
tp1405
a(I220
g79
tp1406
as(S'1323050854'
S'42.3680095'
S'-71.1154444'
g209
tp1407
(lp1408
(I224
g58
tp1409
a(I219
g75
tp1410
a(I214
g27
tp1411
a(I185
g90
tp1412
a(I213
g11
tp1413
a(I220
g31
tp1414
a(I191
g33
tp1415
as(S'1323051487'
g82
g83
g84
tp1416
(lp1417
(I219
g132
tp1418
a(I213
g29
tp1419
a(I214
g15
tp1420
a(I185
g11
tp1421
a(I220
g48
tp1422
as(S'1323049959'
S'42.3686080'
S'-71.1153240'
g19
tp1423
(lp1424
(I192
g1138
tp1425
a(I204
g226
tp1426
a(I208
g90
tp1427
a(I185
g15
tp1428
a(I190
g79
tp1429
a(I209
g79
tp1430
a(I182
g11
tp1431
a(I191
g52
tp1432
a(I211
g52
tp1433
a(I193
g40
tp1434
a(I194
g79
tp1435
a(I235
g22
tp1436
a(I188
g33
tp1437
a(I192
g1138
tp1438
a(I204
g226
tp1439
a(I208
g90
tp1440
a(I185
g15
tp1441
a(I190
g79
tp1442
a(I209
g79
tp1443
a(I182
g11
tp1444
a(I191
g52
tp1445
a(I211
g52
tp1446
a(I193
g40
tp1447
a(I194
g79
tp1448
a(I235
g22
tp1449
a(I188
g33
tp1450
as(S'1323049726'
S'42.3679997'
S'-71.1152551'
g193
tp1451
(lp1452
(I223
g79
tp1453
a(I219
g27
tp1454
a(I214
g177
tp1455
a(I213
g48
tp1456
a(I185
g40
tp1457
a(I220
g9
tp1458
a(I226
g58
tp1459
as(S'1323051638'
g82
g83
g84
tp1460
(lp1461
(I185
g29
tp1462
a(I219
g109
tp1463
a(I214
g79
tp1464
a(I213
g52
tp1465
a(I191
g52
tp1466
a(I220
g15
tp1467
as(S'1323050937'
g165
g166
g2
tp1468
(lp1469
(I219
g331
tp1470
a(I213
g42
tp1471
a(I214
g90
tp1472
a(I220
g48
tp1473
as(S'1323049675'
S'42.3678041'
S'-71.1156461'
g19
tp1474
(lp1475
(I221
g22
tp1476
a(I220
g157
tp1477
a(I219
g157
tp1478
a(I214
g175
tp1479
a(I213
g79
tp1480
a(I191
g52
tp1481
a(I226
g13
tp1482
a(I186
g33
tp1483
a(I185
g22
tp1484
a(I227
g40
tp1485
as(S'1323050153'
S'42.3682670'
S'-71.1154129'
g2
tp1486
(lp1487
(I215
g40
tp1488
a(I182
g25
tp1489
a(I185
g9
tp1490
a(I183
g148
tp1491
a(I192
g79
tp1492
a(I195
g11
tp1493
a(I188
g109
tp1494
as(S'1323050046'
S'42.3683871'
S'-71.1152349'
g19
tp1495
(lp1496
(I189
g48
tp1497
a(I185
g88
tp1498
a(I195
g9
tp1499
a(I182
g31
tp1500
a(I248
g177
tp1501
a(I245
g148
tp1502
a(I187
g148
tp1503
a(I249
g11
tp1504
a(I241
g52
tp1505
a(I192
g52
tp1506
a(I208
g54
tp1507
a(I188
g11
tp1508
a(I183
g58
tp1509
a(I235
g22
tp1510
a(I226
g205
tp1511
as(S'1323051427'
g165
g166
g2
tp1512
(lp1513
(I219
g226
tp1514
a(I213
g31
tp1515
a(I214
g13
tp1516
a(I220
g11
tp1517
as(S'1323051876'
g165
g166
g2
tp1518
(lp1519
(I219
g184
tp1520
a(I214
g88
tp1521
a(I213
g48
tp1522
a(I191
g11
tp1523
a(I185
g54
tp1524
a(I220
g175
tp1525
as(S'1323127499'
S'42.3716549'
S'-71.1166073'
g84
tp1526
(lp1527
(I689
g177
tp1528
a(I690
g177
tp1529
a(I691
g79
tp1530
a(I692
g11
tp1531
a(I693
g22
tp1532
as(S'1323050876'
g662
g663
g209
tp1533
(lp1534
(I219
g157
tp1535
a(I214
g31
tp1536
a(I213
g90
tp1537
a(I191
g54
tp1538
a(I185
g13
tp1539
a(I220
g148
tp1540
as(S'1323051917'
g165
g166
g2
tp1541
(lp1542
(I213
g42
tp1543
a(I219
g52
tp1544
as(S'1323051831'
g165
g166
g2
tp1545
(lp1546
(I219
g64
tp1547
a(I214
g31
tp1548
a(I213
g90
tp1549
a(I185
g40
tp1550
a(I220
g148
tp1551
as(S'1323049150'
S'42.3683537'
S'-71.1156715'
g68
tp1552
(lp1553
(I192
g548
tp1554
a(I195
g132
tp1555
a(I198
g42
tp1556
a(I185
g54
tp1557
a(I187
g22
tp1558
a(I204
g13
tp1559
a(I192
g548
tp1560
a(I195
g132
tp1561
a(I198
g42
tp1562
a(I185
g54
tp1563
a(I187
g22
tp1564
a(I204
g13
tp1565
as(S'1323050366'
S'42.3679749'
S'-71.1158560'
g19
tp1566
(lp1567
(I213
g29
tp1568
a(I185
g90
tp1569
a(I219
g109
tp1570
a(I209
g109
tp1571
a(I211
g109
tp1572
a(I191
g52
tp1573
a(I186
g54
tp1574
a(I214
g40
tp1575
a(I192
g58
tp1576
a(I220
g40
tp1577
a(I213
g29
tp1578
a(I185
g90
tp1579
a(I219
g109
tp1580
a(I209
g109
tp1581
a(I211
g109
tp1582
a(I191
g52
tp1583
a(I186
g54
tp1584
a(I214
g40
tp1585
a(I192
g58
tp1586
a(I220
g40
tp1587
as(S'1323050786'
g207
g208
g209
tp1588
(lp1589
(I263
g22
tp1590
a(I260
g205
tp1591
a(I219
g25
tp1592
a(I214
g226
tp1593
a(I213
g15
tp1594
a(I185
g11
tp1595
a(I220
g90
tp1596
a(I226
g22
tp1597
as(S'1323051094'
g165
g166
g2
tp1598
(lp1599
(I260
g73
tp1600
a(I213
g226
tp1601
a(I219
g29
tp1602
a(I214
g90
tp1603
a(I220
g90
tp1604
a(I211
g33
tp1605
as(S'1323049135'
S'42.3683635'
S'-71.1157983'
g68
tp1606
(lp1607
(I195
S'-50'
p1608
tp1609
a(I192
g144
tp1610
a(I196
g11
tp1611
a(I198
g331
tp1612
as(S'1323051669'
g82
g83
g84
tp1613
(lp1614
(I219
g157
tp1615
a(I214
g88
tp1616
a(I220
g226
tp1617
a(I213
g58
tp1618
as(S'1323049315'
S'42.3682886'
S'-71.1156960'
g68
tp1619
(lp1620
(I209
g839
tp1621
a(I211
g132
tp1622
a(I185
g90
tp1623
a(I191
g48
tp1624
a(I213
g109
tp1625
a(I195
g79
tp1626
a(I214
g40
tp1627
a(I212
g148
tp1628
a(I209
g839
tp1629
a(I211
g132
tp1630
a(I185
g90
tp1631
a(I191
g48
tp1632
a(I213
g109
tp1633
a(I195
g79
tp1634
a(I214
g40
tp1635
a(I212
g148
tp1636
a(I209
g839
tp1637
a(I211
g132
tp1638
a(I185
g90
tp1639
a(I191
g48
tp1640
a(I213
g109
tp1641
a(I195
g79
tp1642
a(I214
g40
tp1643
a(I212
g148
tp1644
a(I209
g839
tp1645
a(I211
g132
tp1646
a(I185
g90
tp1647
a(I191
g48
tp1648
a(I213
g109
tp1649
a(I195
g79
tp1650
a(I214
g40
tp1651
a(I212
g148
tp1652
as(S'1323048880'
S'42.3684601'
S'-71.1155680'
g68
tp1653
(lp1654
(I195
g557
tp1655
a(I196
g9
tp1656
a(I197
g148
tp1657
a(I185
g54
tp1658
a(I198
g11
tp1659
a(I182
g22
tp1660
as(S'1323049589'
S'42.3681653'
S'-71.1153929'
g19
tp1661
(lp1662
(I219
g90
tp1663
a(I185
g48
tp1664
a(I214
g11
tp1665
a(I220
g13
tp1666
a(I213
g40
tp1667
a(I194
g40
tp1668
a(I219
g90
tp1669
a(I185
g48
tp1670
a(I214
g11
tp1671
a(I220
g13
tp1672
a(I213
g40
tp1673
a(I194
g40
tp1674
as(S'1323051109'
g165
g166
g2
tp1675
(lp1676
(I221
g22
tp1677
a(I213
g157
tp1678
a(I222
g31
tp1679
a(I219
g15
tp1680
a(I214
g15
tp1681
a(I220
g33
tp1682
as(S'1323050474'
S'42.3678621'
S'-71.1154177'
g19
tp1683
(lp1684
(I221
g33
tp1685
a(I223
g58
tp1686
a(I219
g787
tp1687
a(I214
g7
tp1688
a(I185
g11
tp1689
a(I213
g52
tp1690
a(I191
g54
tp1691
a(I220
g557
tp1692
as(S'1323051607'
g82
g83
g84
tp1693
(lp1694
(I219
g175
tp1695
a(I214
g31
tp1696
a(I213
g177
tp1697
a(I220
g148
tp1698
as(S'1323049981'
S'42.3685983'
S'-71.1152491'
g209
tp1699
(lp1700
(I189
g33
tp1701
a(I236
g221
tp1702
a(I195
g7
tp1703
a(I185
g7
tp1704
a(I192
g31
tp1705
a(I182
g31
tp1706
a(I183
g109
tp1707
a(I237
g79
tp1708
a(I238
g11
tp1709
a(I216
g11
tp1710
a(I197
g11
tp1711
a(I239
g40
tp1712
a(I240
g40
tp1713
a(I241
g40
tp1714
a(I242
g40
tp1715
a(I198
g148
tp1716
a(I208
g58
tp1717
a(I188
g54
tp1718
a(I171
g33
tp1719
as(S'1323052009'
g165
g166
g2
tp1720
(lp1721
(I192
g787
tp1722
a(I185
g148
tp1723
a(I208
g79
tp1724
a(I182
g79
tp1725
a(I183
g11
tp1726
a(I190
g54
tp1727
a(I197
g13
tp1728
a(I191
g40
tp1729
a(I204
g184
tp1730
a(I209
g33
tp1731
a(I188
g58
tp1732
as(S'1323049919'
S'42.3683761'
S'-71.1155705'
g19
tp1733
(lp1734
(I208
g42
tp1735
a(I192
g42
tp1736
a(I211
g148
tp1737
a(I190
g54
tp1738
a(I204
g54
tp1739
a(I194
g79
tp1740
a(I191
g58
tp1741
as(S'1323050252'
S'42.3682265'
S'-71.1153703'
g68
tp1742
(lp1743
(I208
g331
tp1744
a(I192
g7
tp1745
a(I185
g132
tp1746
a(I209
g79
tp1747
a(I191
g52
tp1748
a(I226
g13
tp1749
a(I204
g40
tp1750
a(I194
g33
tp1751
as(S'1323049342'
S'42.3683826'
S'-71.1155169'
g19
tp1752
(lp1753
(I192
g331
tp1754
a(I185
g144
tp1755
a(I208
g15
tp1756
a(I195
g48
tp1757
a(I204
g42
tp1758
a(I190
g58
tp1759
as(S'1323050689'
S'42.3679259'
S'-71.1154349'
g19
tp1760
(lp1761
(I219
S'-52'
p1762
tp1763
a(I214
g157
tp1764
a(I220
g177
tp1765
a(I213
g90
tp1766
a(I191
g52
tp1767
a(I185
g54
tp1768
a(I194
g40
tp1769
as(S'1323051547'
g82
g83
g84
tp1770
(lp1771
(I221
g52
tp1772
a(I223
g54
tp1773
a(I272
g22
tp1774
a(I219
g27
tp1775
a(I213
g109
tp1776
a(I214
g109
tp1777
a(I185
g79
tp1778
a(I220
g9
tp1779
as(S'1323049608'
S'42.3682897'
S'-71.1156137'
g193
tp1780
(lp1781
(I185
g177
tp1782
a(I213
g15
tp1783
a(I219
g15
tp1784
a(I211
g54
tp1785
a(I214
g58
tp1786
a(I220
g40
tp1787
a(I185
g177
tp1788
a(I213
g15
tp1789
a(I219
g15
tp1790
a(I211
g54
tp1791
a(I214
g58
tp1792
a(I220
g40
tp1793
as(S'1323051654'
g82
g83
g84
tp1794
(lp1795
(I223
g205
tp1796
a(I219
g64
tp1797
a(I214
g157
tp1798
a(I185
g144
tp1799
a(I213
g31
tp1800
a(I191
g13
tp1801
a(I220
g329
tp1802
as(S'1323049881'
S'42.3680965'
S'-71.1156990'
g68
tp1803
(lp1804
(I211
g9
tp1805
a(I219
g48
tp1806
a(I185
g109
tp1807
a(I213
g148
tp1808
a(I212
g13
tp1809
a(I214
g73
tp1810
a(I194
g33
tp1811
as(S'1323050353'
S'42.3679384'
p1812
S'-71.1158454'
g19
tp1813
(lp1814
(I185
g839
tp1815
a(I209
g29
tp1816
a(I191
g177
tp1817
a(I213
g15
tp1818
a(I219
g48
tp1819
a(I211
g54
tp1820
a(I182
g54
tp1821
a(I190
g54
tp1822
a(I208
g54
tp1823
a(I214
g40
tp1824
a(I220
g33
tp1825
a(I194
g54
tp1826
as(S'1323051743'
g165
g166
g2
tp1827
(lp1828
(I213
g42
tp1829
a(I214
g13
tp1830
a(I220
g54
tp1831
as(S'1323050424'
S'42.3678301'
S'-71.1156280'
g19
tp1832
(lp1833
(I223
g5
tp1834
a(I260
g22
tp1835
a(I219
g839
tp1836
a(I214
g88
tp1837
a(I185
g109
tp1838
a(I213
g79
tp1839
a(I226
g11
tp1840
a(I220
g132
tp1841
a(I186
g22
tp1842
as(S'1323050597'
g17
g18
g19
tp1843
(lp1844
(I214
g331
tp1845
a(I186
g79
tp1846
a(I191
g11
tp1847
a(I213
g13
tp1848
a(I220
g7
tp1849
as(S'1323051185'
g165
g166
g2
tp1850
(lp1851
(I221
g73
tp1852
a(I219
g64
tp1853
a(I214
g226
tp1854
a(I213
g42
tp1855
a(I191
g79
tp1856
a(I220
g90
tp1857
as(S'1323048662'
g685
g686
g68
tp1858
(lp1859
(I180
g22
tp1860
a(I181
g226
tp1861
a(I182
g109
tp1862
a(I183
g79
tp1863
a(I184
g11
tp1864
a(I185
g13
tp1865
a(I186
g13
tp1866
a(I187
g33
tp1867
a(I188
g40
tp1868
as(S'1323051066'
g165
g166
g2
tp1869
(lp1870
(I221
g73
tp1871
a(I224
g223
tp1872
a(I219
g132
tp1873
a(I213
g9
tp1874
a(I214
g90
tp1875
a(I220
g11
tp1876
as(S'1323049236'
S'42.3683649'
S'-71.1157581'
g68
tp1877
(lp1878
(I192
g213
tp1879
a(I208
g48
tp1880
a(I195
g11
tp1881
a(I185
g54
tp1882
a(I209
g33
tp1883
a(I204
g52
tp1884
a(I192
g213
tp1885
a(I208
g48
tp1886
a(I195
g11
tp1887
a(I185
g54
tp1888
a(I209
g33
tp1889
a(I204
g52
tp1890
as(S'1323050644'
S'42.3679432'
S'-71.1155227'
g19
tp1891
(lp1892
(I223
g22
tp1893
a(I214
g787
tp1894
a(I219
g213
tp1895
a(I191
g109
tp1896
a(I213
g148
tp1897
a(I186
g40
tp1898
a(I220
g157
tp1899
as(S'1323051130'
g165
g166
g2
tp1900
(lp1901
(I223
g40
tp1902
a(I219
g9
tp1903
a(I213
g42
tp1904
a(I214
g90
tp1905
a(I185
g79
tp1906
a(I220
g109
tp1907
a(I222
g33
tp1908
a(I226
g22
tp1909
as(S'1323051532'
g82
g83
g84
tp1910
(lp1911
(I223
g54
tp1912
a(I221
g54
tp1913
a(I213
g132
tp1914
a(I219
g144
tp1915
a(I214
g15
tp1916
a(I220
g11
tp1917
a(I185
g205
tp1918
as(S'1323049816'
S'42.3678046'
S'-71.1156465'
g2
tp1919
(lp1920
(I224
g5
tp1921
a(I213
g226
tp1922
a(I219
g48
tp1923
a(I214
g48
tp1924
as(S'1323050094'
S'42.3685273'
S'-71.1152382'
g68
tp1925
(lp1926
(I189
g79
tp1927
a(I215
g177
tp1928
a(I182
g88
tp1929
a(I185
g132
tp1930
a(I195
g9
tp1931
a(I192
g15
tp1932
a(I187
g48
tp1933
a(I216
g48
tp1934
a(I183
g148
tp1935
a(I254
g79
tp1936
a(I241
g11
tp1937
a(I242
g54
tp1938
a(I198
g177
tp1939
a(I255
g33
tp1940
a(I188
g33
tp1941
as(S'1323051947'
g165
g166
g2
tp1942
(lp1943
(I211
g331
tp1944
a(I213
g88
tp1945
a(I192
g109
tp1946
a(I191
g52
tp1947
a(I212
g177
tp1948
as(S'1323051413'
g165
g166
g2
tp1949
(lp1950
(I221
g205
tp1951
a(I219
g144
tp1952
a(I213
g9
tp1953
a(I214
g31
tp1954
a(I220
g11
tp1955
as(S'1323051231'
g165
g166
g2
tp1956
(lp1957
(I223
g205
tp1958
a(I219
g7
tp1959
a(I214
g148
tp1960
a(I213
g52
tp1961
a(I185
g54
tp1962
a(I226
g40
tp1963
a(I220
g48
tp1964
a(I191
g58
tp1965
as(S'1323051577'
g82
g83
g84
tp1966
(lp1967
(I223
g22
tp1968
a(I219
g907
tp1969
a(I214
g226
tp1970
a(I185
g31
tp1971
a(I213
g48
tp1972
a(I191
g52
tp1973
a(I220
g157
tp1974
as(S'1323048297'
S'42.3679719'
S'-71.1153949'
g68
tp1975
(lp1976
(I162
g48
tp1977
a(I163
g29
tp1978
a(I164
g29
tp1979
a(I165
g90
tp1980
a(I166
g48
tp1981
a(I167
g148
tp1982
a(I168
g148
tp1983
a(I169
g13
tp1984
a(I170
g13
tp1985
a(I171
S'-60'
p1986
tp1987
a(I172
g79
tp1988
a(I173
g48
tp1989
a(I174
g5
tp1990
as(S'1323050507'
g806
g807
g19
tp1991
(lp1992
(I223
g22
tp1993
a(I214
g557
tp1994
a(I213
g48
tp1995
a(I191
g109
tp1996
a(I185
g148
tp1997
a(I220
g132
tp1998
as(S'1323049654'
S'42.3679429'
S'-71.1157091'
g19
tp1999
(lp2000
(I221
g13
tp2001
a(I223
g40
tp2002
a(I219
g346
tp2003
a(I214
g226
tp2004
a(I213
g90
tp2005
a(I185
g79
tp2006
a(I220
g177
tp2007
as(S'1323051245'
g165
g166
g2
tp2008
(lp2009
(I219
g226
tp2010
a(I214
g15
tp2011
a(I213
g148
tp2012
a(I220
g177
tp2013
a(I191
g33
tp2014
as(S'1323050169'
S'42.3684139'
S'-71.1155356'
g19
tp2015
(lp2016
(I185
g548
tp2017
a(I204
g75
tp2018
a(I195
g226
tp2019
a(I192
g31
tp2020
a(I182
g48
tp2021
a(I190
g11
tp2022
a(I194
g11
tp2023
a(I188
g33
tp2024
as(S'1323050308'
g1812
S'-71.1156371'
g19
tp2025
(lp2026
(I223
g13
tp2027
a(I221
g13
tp2028
a(I259
g33
tp2029
a(I213
g144
tp2030
a(I219
g109
tp2031
a(I220
g11
tp2032
a(I185
g58
tp2033
as(S'1323049202'
S'42.3683114'
S'-71.1157925'
g68
tp2034
(lp2035
(I192
g346
tp2036
a(I185
g7
tp2037
a(I208
g226
tp2038
a(I209
g148
tp2039
a(I190
g11
tp2040
a(I195
g13
tp2041
a(I204
g15
tp2042
a(I191
g33
tp2043
a(I211
g58
tp2044
a(I192
g346
tp2045
a(I185
g7
tp2046
a(I208
g226
tp2047
a(I209
g148
tp2048
a(I190
g11
tp2049
a(I195
g13
tp2050
a(I204
g15
tp2051
a(I191
g33
tp2052
a(I211
g58
tp2053
a(I192
g346
tp2054
a(I185
g7
tp2055
a(I208
g226
tp2056
a(I209
g148
tp2057
a(I190
g11
tp2058
a(I195
g13
tp2059
a(I204
g15
tp2060
a(I191
g33
tp2061
a(I211
g58
tp2062
as(S'1323049741'
S'42.3678920'
S'-71.1153797'
g2
tp2063
(lp2064
(I223
g52
tp2065
a(I221
g52
tp2066
a(I231
g58
tp2067
a(I219
g1986
tp2068
a(I214
g132
tp2069
a(I185
g48
tp2070
a(I213
g109
tp2071
a(I220
g9
tp2072
a(I191
g22
tp2073
as(S'1323050381'
S'42.3680324'
S'-71.1158926'
g19
tp2074
(lp2075
(I185
g144
tp2076
a(I219
g29
tp2077
a(I214
g31
tp2078
a(I213
g11
tp2079
a(I191
g54
tp2080
a(I209
g54
tp2081
a(I211
g40
tp2082
a(I220
g52
tp2083
as(g739
S'42.3681739'
S'-71.1153552'
g68
tp2084
(lp2085
(I209
g88
tp2086
a(I211
g226
tp2087
a(I185
g226
tp2088
a(I208
g42
tp2089
a(I192
g48
tp2090
a(I191
g109
tp2091
a(I226
g79
tp2092
a(I190
g11
tp2093
as(S'1323049851'
S'42.3678355'
S'-71.1153169'
g19
tp2094
(lp2095
(I224
g33
tp2096
a(I223
g73
tp2097
a(I221
g73
tp2098
a(I219
g132
tp2099
a(I213
g9
tp2100
a(I214
g15
tp2101
a(I220
g54
tp2102
as(S'1323049934'
S'42.3684614'
S'-71.1154574'
g68
tp2103
(lp2104
(I192
g346
tp2105
a(I208
g88
tp2106
a(I195
g7
tp2107
a(I204
g42
tp2108
a(I185
g90
tp2109
a(I183
g48
tp2110
a(I209
g13
tp2111
a(I234
g40
tp2112
a(I190
g33
tp2113
a(I182
g58
tp2114
a(I187
g22
tp2115
a(I188
g13
tp2116
a(I211
g13
tp2117
as(S'1323051145'
g165
g166
g2
tp2118
(lp2119
(I219
g175
tp2120
a(I214
g9
tp2121
a(I213
g31
tp2122
a(I220
g109
tp2123
a(I185
g33
tp2124
as.