(dp1
(S'1323045445'
p2
S'37.8775940'
p3
S'-122.2598204'
p4
S'80'
p5
tp6
(lp7
(I35
S'-48'
p8
tp9
a(I37
S'-77'
p10
tp11
a(I38
S'-79'
p12
tp13
a(I36
g12
tp14
a(I39
S'-80'
p15
tp16
a(I52
S'-85'
p17
tp18
a(I40
S'-91'
p19
tp20
a(I65
S'-93'
p21
tp22
a(I67
g21
tp23
a(I54
g21
tp24
a(I99
g21
tp25
a(I42
S'-56'
p26
tp27
a(I43
S'-71'
p28
tp29
a(I46
S'-86'
p30
tp31
a(I44
S'-88'
p32
tp33
a(I45
g19
tp34
a(I106
S'-94'
p35
tp36
a(I88
S'-89'
p37
tp38
as(S'1323050612'
p39
S'42.3679383'
p40
S'-71.1154507'
p41
S'45'
p42
tp43
(lp44
(I223
g21
tp45
a(I221
g21
tp46
a(I219
S'-53'
p47
tp48
a(I214
S'-68'
p49
tp50
a(I213
g10
tp51
a(I220
S'-78'
p52
tp53
a(I191
g19
tp54
a(I185
g19
tp55
as(S'1323040484'
p56
S'37.4229648'
p57
S'-122.1575601'
p58
S'36'
p59
tp60
(lp61
(I89
S'-67'
p62
tp63
a(I90
S'-82'
p64
tp65
a(I91
g62
tp66
as(S'1323041843'
p67
S'37.8780126'
p68
S'-122.2597341'
p69
S'49'
p70
tp71
(lp72
(I35
S'-50'
p73
tp74
a(I37
g15
tp75
a(I53
g30
tp76
a(I36
g32
tp77
a(I52
g32
tp78
a(I41
g37
tp79
a(I87
g37
tp80
a(I42
S'-60'
p81
tp82
a(I43
S'-72'
p83
tp84
a(I44
g52
tp85
a(I46
S'-90'
p86
tp87
a(I106
S'-95'
p88
tp89
a(I51
g19
tp90
a(I107
g19
tp91
as(S'1323040798'
p92
S'37.4229763'
p93
S'-122.1575576'
p94
S'20'
p95
tp96
(lp97
(I89
S'-51'
p98
tp99
a(I91
g47
tp100
a(I90
g15
tp101
a(I95
g30
tp102
as(S'1323050831'
p103
S'42.3680106'
p104
S'-71.1153690'
p105
S'25'
p106
tp107
(lp108
(I221
g21
tp109
a(I219
S'-58'
p110
tp111
a(I214
g10
tp112
a(I213
g15
tp113
a(I185
S'-83'
p114
tp115
a(I220
S'-64'
p116
tp117
as(S'1323049500'
p118
S'42.3679640'
p119
S'-71.1156999'
p120
S'40'
p121
tp122
(lp123
(I224
g35
tp124
a(I221
S'-98'
p125
tp126
a(I213
S'-73'
p127
tp128
a(I219
S'-74'
p129
tp130
a(I214
g114
tp131
a(I185
g37
tp132
a(I220
g30
tp133
a(I222
g19
tp134
as(S'1323056245'
p135
S'37.8780283'
p136
S'-122.2597408'
p137
S'60'
p138
tp139
(lp140
(I35
S'-62'
p141
tp142
a(I36
g30
tp143
a(I37
g30
tp144
a(I43
S'-66'
p145
tp146
a(I42
g145
tp147
a(I44
g10
tp148
a(I46
S'-87'
p149
tp150
as(S'1323050046'
p151
S'42.3683871'
p152
S'-71.1152349'
p153
g42
tp154
(lp155
(I189
g64
tp156
a(I185
S'-69'
p157
tp158
a(I195
S'-75'
p159
tp160
a(I182
g52
tp161
a(I248
g12
tp162
a(I245
S'-84'
p163
tp164
a(I187
g163
tp165
a(I249
g30
tp166
a(I241
g149
tp167
a(I192
g149
tp168
a(I208
g32
tp169
a(I188
g30
tp170
a(I183
S'-92'
p171
tp172
a(I235
g21
tp173
a(I226
S'-96'
p174
tp175
as(S'1323048526'
p176
S'37.4236857'
p177
S'-122.1587163'
p178
S'34'
p179
tp180
(lp181
(I159
S'-61'
p182
tp183
a(I148
g64
tp184
a(I152
g30
tp185
a(I150
g37
tp186
a(I161
S'-54'
p187
tp188
as(S'1323049494'
p189
S'42.3679947'
p190
S'-71.1158140'
p191
S'30'
p192
tp193
(lp194
(I223
g19
tp195
a(I224
g19
tp196
a(I221
g171
tp197
a(I225
g88
tp198
a(I213
g159
tp199
a(I219
g52
tp200
a(I214
g17
tp201
a(I220
g17
tp202
a(I226
g171
tp203
as(S'1323053846'
p204
S'37.8780188'
p205
S'-122.2597551'
p206
g138
tp207
(lp208
(I35
g28
tp209
a(I52
g86
tp210
a(I37
g32
tp211
a(I39
g21
tp212
a(I50
g21
tp213
a(I53
g35
tp214
a(I42
g182
tp215
a(I43
g159
tp216
a(I44
g15
tp217
as(S'1323041265'
p218
S'37.4229839'
p219
S'-122.1575943'
p220
g179
tp221
(lp222
(I89
S'-45'
p223
tp224
a(I90
g52
tp225
a(I94
g32
tp226
a(I92
g86
tp227
a(I91
g81
tp228
as(S'1323049047'
p229
S'37.8780398'
p230
S'-122.2597586'
p231
g70
tp232
(lp233
(I35
g98
tp234
a(I37
g15
tp235
a(I50
S'-81'
p236
tp237
a(I54
g163
tp238
a(I36
g149
tp239
a(I40
g37
tp240
a(I87
g86
tp241
a(I52
g86
tp242
a(I39
g86
tp243
a(I53
g21
tp244
a(I43
S'-59'
p245
tp246
a(I42
g81
tp247
a(I44
g129
tp248
a(I46
g86
tp249
a(I51
g21
tp250
a(I88
g17
tp251
a(I48
g32
tp252
a(I107
g19
tp253
as(S'1323062392'
p254
S'52.9293133'
p255
S'-1.2166246'
p256
S'24'
p257
tp258
(lp259
(I11
g182
tp260
a(I14
S'-70'
p261
tp262
a(I13
g159
tp263
a(I17
g114
tp264
a(I16
g163
tp265
a(I15
g17
tp266
a(I57
g86
tp267
a(I20
g86
tp268
a(I34
g21
tp269
a(I56
g35
tp270
a(I59
S'-97'
p271
tp272
a(I58
g125
tp273
a(I25
g236
tp274
a(I26
g114
tp275
a(I297
g171
tp276
a(I28
g125
tp277
a(I61
g125
tp278
a(I27
g125
tp279
as(S'1323047796'
p280
S'37.4232810'
p281
S'-122.1580498'
p282
S'86'
p283
tp284
(lp285
(I145
g37
tp286
a(I149
g163
tp287
a(I148
S'-76'
p288
tp289
a(I93
g52
tp290
a(I92
g236
tp291
a(I144
g64
tp292
a(I150
g64
tp293
a(I94
g163
tp294
a(I142
g171
tp295
as(S'1323051451'
p296
S'42.3678824'
p297
S'-71.1158462'
p298
g138
tp299
(lp300
(I223
g32
tp301
a(I221
g32
tp302
a(I213
S'-63'
p303
tp304
a(I219
g163
tp305
a(I214
g37
tp306
a(I220
g32
tp307
as(S'1323048404'
p308
S'37.4236671'
p309
S'-122.1587106'
p310
g179
tp311
(lp312
(I159
g26
tp313
a(I150
g52
tp314
a(I148
g64
tp315
a(I161
g110
tp316
as(S'1323040642'
p317
S'37.8780272'
p318
S'-122.2597294'
p319
g138
tp320
(lp321
(I35
g110
tp322
a(I37
g129
tp323
a(I36
g64
tp324
a(I39
g114
tp325
a(I52
g32
tp326
a(I98
g37
tp327
a(I54
g21
tp328
a(I99
g35
tp329
a(I41
g19
tp330
a(I42
g141
tp331
a(I43
g157
tp332
a(I44
g15
tp333
a(I46
g37
tp334
as(S'1323048457'
p335
S'39.3834112'
p336
S'-76.4895521'
p337
S'50'
p338
tp339
(lp340
(I1
g127
tp341
as(S'1323049105'
p342
S'42.3682232'
p343
S'-71.1157502'
p344
g338
tp345
(lp346
(I195
g245
tp347
a(I192
g127
tp348
a(I198
g114
tp349
a(I185
g32
tp350
a(I201
g37
tp351
a(I204
g37
tp352
a(I196
g35
tp353
as(S'1323043648'
p354
S'57.0727703'
p355
S'10.2601734'
p356
S'51'
p357
tp358
(lp359
(I130
g110
tp360
a(I131
g21
tp361
as(S'1323050443'
p362
S'42.3679917'
p363
S'-71.1155046'
p364
g338
tp365
(lp366
(I223
g19
tp367
a(I219
g245
tp368
a(I214
g157
tp369
a(I213
g129
tp370
a(I185
g52
tp371
a(I191
g64
tp372
a(I220
g10
tp373
as(S'1323051517'
p374
g297
g298
g138
tp375
(lp376
(I223
g171
tp377
a(I219
g127
tp378
a(I213
g12
tp379
a(I214
g163
tp380
as(S'1323056860'
p381
g336
g337
g338
tp382
(lp383
(I1
g141
tp384
a(I2
S'-99'
p385
tp386
as(S'1323049457'
p387
S'42.3680893'
p388
S'-71.1156861'
p389
g192
tp390
(lp391
(I219
g236
tp392
a(I211
g64
tp393
a(I213
g30
tp394
a(I220
g15
tp395
as(S'1323047357'
p396
S'37.4239497'
p397
S'-122.1742079'
p398
g138
tp399
(lp400
(I31
g32
tp401
a(I32
g21
tp402
as(S'1323050659'
p403
S'42.3679257'
p404
S'-71.1155347'
p405
g42
tp406
(lp407
(I223
g86
tp408
a(I221
g19
tp409
a(I231
g88
tp410
a(I260
g88
tp411
a(I219
g261
tp412
a(I214
g12
tp413
a(I213
g15
tp414
a(I220
g288
tp415
a(I191
g19
tp416
as(S'1323035974'
p417
S'52.9293043'
p418
S'-1.2164738'
p419
S'58'
p420
tp421
(lp422
(I12
g83
tp423
a(I14
g127
tp424
a(I15
g129
tp425
a(I17
g236
tp426
a(I13
g64
tp427
a(I16
g64
tp428
a(I19
g21
tp429
a(I21
g271
tp430
a(I34
g271
tp431
a(I24
g385
tp432
a(I23
S'-100'
p433
tp434
a(I11
S'-65'
p435
tp436
a(I26
g236
tp437
a(I25
g114
tp438
a(I27
g88
tp439
a(I28
g88
tp440
as(S'1323056648'
p441
S'37.4256680'
p442
S'-122.1606234'
p443
g121
tp444
(lp445
(I108
g149
tp446
a(I109
S'-55'
p447
tp448
a(I111
g435
tp449
a(I114
g127
tp450
a(I110
g129
tp451
a(I112
g52
tp452
a(I118
g86
tp453
a(I119
g236
tp454
a(I116
g64
tp455
as(S'1323059859'
p456
S'39.3833531'
p457
S'-76.4893794'
p458
g338
tp459
(lp460
(I1
g62
tp461
as(S'1323049159'
p462
S'37.4229507'
p463
S'-122.1576561'
p464
S'46'
p465
tp466
(lp467
(I146
g15
tp468
a(I140
g163
tp469
a(I144
g30
tp470
a(I103
g149
tp471
a(I148
g37
tp472
a(I90
g149
tp473
a(I146
g15
tp474
a(I140
g163
tp475
a(I144
g30
tp476
a(I103
g149
tp477
a(I148
g37
tp478
a(I90
g149
tp479
as(S'1323051862'
p480
S'42.3680197'
p481
S'-71.1155957'
p482
g192
tp483
(lp484
(I219
g261
tp485
a(I214
g10
tp486
a(I213
g64
tp487
a(I191
g149
tp488
a(I220
g12
tp489
as(S'1323041414'
p490
S'37.4229888'
p491
S'-122.1575645'
p492
S'21'
p493
tp494
(lp495
(I89
S'-49'
p496
tp497
a(I90
g236
tp498
a(I91
g145
tp499
as(S'1323059247'
p500
S'37.8779757'
p501
S'-122.2598133'
p502
g70
tp503
(lp504
(I35
g447
tp505
a(I37
g127
tp506
a(I54
g236
tp507
a(I55
g30
tp508
a(I38
g30
tp509
a(I40
g149
tp510
a(I53
g37
tp511
a(I98
g86
tp512
a(I87
g174
tp513
a(I43
g110
tp514
a(I42
g81
tp515
a(I44
g10
tp516
a(I300
g19
tp517
a(I48
g149
tp518
as(S'1323050394'
p519
S'42.3679411'
p520
S'-71.1158315'
p521
g338
tp522
(lp523
(I219
g496
tp524
a(I214
S'-57'
p525
tp526
a(I191
g10
tp527
a(I213
g12
tp528
a(I220
g261
tp529
as(S'1323051260'
p530
g481
g482
g192
tp531
(lp532
(I224
g19
tp533
a(I219
g141
tp534
a(I214
g159
tp535
a(I191
g30
tp536
a(I213
g30
tp537
a(I185
g32
tp538
a(I220
g236
tp539
as(S'1323042006'
p540
S'37.4229448'
p541
S'-122.1575709'
p542
S'37'
p543
tp544
(lp545
(I89
S'-47'
p546
tp547
a(I90
g159
tp548
a(I94
g149
tp549
a(I91
g187
tp550
as(S'1323041695'
p551
S'37.4229556'
p552
S'-122.1575512'
p553
S'28'
p554
tp555
(lp556
(I91
g47
tp557
a(I89
g187
tp558
a(I90
g64
tp559
a(I95
g37
tp560
a(I93
g114
tp561
as(S'1323050366'
p562
S'42.3679749'
p563
S'-71.1158560'
p564
g42
tp565
(lp566
(I213
g10
tp567
a(I185
g15
tp568
a(I219
g114
tp569
a(I209
g114
tp570
a(I211
g114
tp571
a(I191
g149
tp572
a(I186
g32
tp573
a(I214
g86
tp574
a(I192
g171
tp575
a(I220
g86
tp576
a(I213
g10
tp577
a(I185
g15
tp578
a(I219
g114
tp579
a(I209
g114
tp580
a(I211
g114
tp581
a(I191
g149
tp582
a(I186
g32
tp583
a(I214
g86
tp584
a(I192
g171
tp585
a(I220
g86
tp586
as(S'1323041886'
p587
S'37.4229695'
p588
S'-122.1576060'
p589
g59
tp590
(lp591
(I89
g73
tp592
a(I91
g26
tp593
a(I90
g64
tp594
a(I94
g32
tp595
a(I95
g37
tp596
a(I100
g19
tp597
as(S'1323062859'
p598
g457
g458
g338
tp599
(lp600
(I1
g116
tp601
a(I2
g271
tp602
as(S'1323051562'
p603
g297
g298
g138
tp604
(lp605
(I223
g86
tp606
a(I272
g21
tp607
a(I221
g35
tp608
a(I259
g35
tp609
a(I219
g303
tp610
a(I214
g28
tp611
a(I213
g163
tp612
a(I185
g149
tp613
a(I191
g37
tp614
a(I220
g288
tp615
a(I186
g35
tp616
as(S'1323041374'
p617
S'52.9293499'
p618
S'-1.2164116'
p619
g420
tp620
(lp621
(I11
g435
tp622
a(I13
g129
tp623
a(I12
g52
tp624
a(I16
g12
tp625
a(I14
g236
tp626
a(I57
g163
tp627
a(I17
g32
tp628
a(I15
g86
tp629
a(I19
g171
tp630
a(I24
g88
tp631
a(I34
g174
tp632
a(I22
g174
tp633
a(I56
g125
tp634
a(I21
g433
tp635
a(I26
g149
tp636
a(I25
g32
tp637
a(I28
g88
tp638
a(I27
g433
tp639
as(S'1323051713'
p640
g481
g482
g192
tp641
(lp642
(I213
g15
tp643
a(I219
g15
tp644
a(I214
g163
tp645
a(I220
g37
tp646
as(S'1323050861'
p647
S'42.3679784'
p648
S'-71.1154668'
p649
g106
tp650
(lp651
(I231
g271
tp652
a(I219
g83
tp653
a(I214
g129
tp654
a(I213
g10
tp655
a(I185
g21
tp656
a(I220
g37
tp657
as(S'1323048489'
p658
S'42.3679728'
p659
S'-71.1153304'
p660
g338
tp661
(lp662
(I162
g15
tp663
a(I167
g127
tp664
a(I163
g12
tp665
a(I166
g15
tp666
a(I170
g17
tp667
a(I168
g30
tp668
a(I164
g32
tp669
a(I165
g37
tp670
a(I171
g28
tp671
a(I173
g12
tp672
a(I175
g171
tp673
a(I176
g171
tp674
a(I174
g21
tp675
as(S'1323049533'
p676
S'42.3680223'
p677
S'-71.1155815'
p678
g192
tp679
(lp680
(I221
g19
tp681
a(I219
g28
tp682
a(I214
g159
tp683
a(I213
g52
tp684
a(I185
g114
tp685
a(I220
g236
tp686
as(S'1323050261'
p687
S'42.3682020'
p688
S'-71.1153640'
p689
g338
tp690
(lp691
(I209
g157
tp692
a(I211
g129
tp693
a(I185
g129
tp694
a(I208
g288
tp695
a(I192
g64
tp696
a(I191
g114
tp697
a(I226
g17
tp698
a(I190
g30
tp699
as(S'1323038975'
p700
g255
S'-1.2166520'
p701
g554
tp702
(lp703
(I11
g182
tp704
a(I12
g83
tp705
a(I14
g127
tp706
a(I13
g52
tp707
a(I16
g236
tp708
a(I17
g163
tp709
a(I21
g171
tp710
a(I34
g88
tp711
a(I15
g88
tp712
a(I24
g385
tp713
a(I83
g433
tp714
a(I85
g433
tp715
a(I84
g433
tp716
a(I19
g433
tp717
a(I63
g433
tp718
a(I25
g52
tp719
a(I26
g52
tp720
a(I28
g19
tp721
a(I27
g171
tp722
as(S'1323041946'
p723
S'37.4229832'
p724
S'-122.1575625'
p725
g95
tp726
(lp727
(I89
g26
tp728
a(I91
g141
tp729
a(I90
g149
tp730
a(I93
g171
tp731
as(S'1323060583'
p732
S'52.9292455'
p733
S'-1.2165313'
p734
g138
tp735
(lp736
(I11
g110
tp737
a(I13
g157
tp738
a(I14
g10
tp739
a(I17
g114
tp740
a(I57
g30
tp741
a(I56
g19
tp742
a(I21
g19
tp743
a(I20
g21
tp744
a(I63
g88
tp745
a(I26
g64
tp746
a(I25
g163
tp747
a(I27
g19
tp748
a(I61
g433
tp749
a(I86
g433
tp750
as(S'1323049180'
p751
S'52.9293235'
p752
S'-1.2165452'
p753
S'32'
p754
tp755
(lp756
(I11
g245
tp757
a(I13
g127
tp758
a(I14
g288
tp759
a(I16
g10
tp760
a(I17
g163
tp761
a(I15
g163
tp762
a(I57
g88
tp763
a(I21
g174
tp764
a(I34
g271
tp765
a(I19
g125
tp766
a(I24
g125
tp767
a(I22
g385
tp768
a(I85
g385
tp769
a(I63
g433
tp770
a(I25
g163
tp771
a(I26
g163
tp772
a(I28
g32
tp773
a(I27
g271
tp774
as(S'1323038376'
p775
S'52.9293456'
p776
S'-1.2165186'
p777
g420
tp778
(lp779
(I11
g182
tp780
a(I12
g127
tp781
a(I14
g159
tp782
a(I57
g52
tp783
a(I13
g12
tp784
a(I17
g12
tp785
a(I16
g15
tp786
a(I15
g32
tp787
a(I21
g19
tp788
a(I34
g35
tp789
a(I24
g385
tp790
a(I63
g385
tp791
a(I83
g433
tp792
a(I19
g433
tp793
a(I84
g433
tp794
a(I22
g433
tp795
a(I26
g52
tp796
a(I25
g163
tp797
a(I28
g35
tp798
a(I27
g35
tp799
as(S'1323050537'
p800
S'42.3679328'
p801
S'-71.1154656'
p802
g338
tp803
(lp804
(I219
S'-42'
p805
tp806
a(I214
g245
tp807
a(I191
g261
tp808
a(I185
g17
tp809
a(I213
g17
tp810
a(I220
g435
tp811
as(S'1323041180'
p812
S'37.4229632'
p813
S'-122.1575781'
p814
S'35'
p815
tp816
(lp817
(I89
g110
tp818
a(I90
g236
tp819
a(I91
g116
tp820
a(I94
g21
tp821
as(S'1323057606'
p822
S'52.9293274'
p823
S'-1.2165191'
p824
g420
tp825
(lp826
(I11
g525
tp827
a(I14
g141
tp828
a(I13
g159
tp829
a(I16
g12
tp830
a(I17
g15
tp831
a(I15
g114
tp832
a(I57
g32
tp833
a(I34
g37
tp834
a(I83
g21
tp835
a(I23
g35
tp836
a(I24
g88
tp837
a(I21
g174
tp838
a(I22
g271
tp839
a(I58
g271
tp840
a(I20
g271
tp841
a(I59
g271
tp842
a(I85
g125
tp843
a(I63
g125
tp844
a(I56
g125
tp845
a(I295
g385
tp846
a(I296
g433
tp847
a(I26
g15
tp848
a(I25
g30
tp849
a(I27
g35
tp850
a(I28
g174
tp851
a(I61
g271
tp852
a(I86
g125
tp853
a(I297
g433
tp854
as(S'1323063462'
p855
g457
g458
g338
tp856
(lp857
(I1
g435
tp858
a(I2
g35
tp859
as(S'1323061803'
p860
S'52.9292397'
p861
S'-1.2165441'
p862
g138
tp863
(lp864
(I11
g110
tp865
as(S'1323046048'
p866
S'57.0726992'
p867
S'10.2601290'
p868
g357
tp869
(lp870
(I130
S'-41'
p871
tp872
a(I133
g10
tp873
as(S'1323058644'
p874
S'37.4444678'
p875
S'-122.1621710'
p876
S'138'
p877
tp878
(lp879
(I292
g149
tp880
as(S'1323047950'
p881
g397
g398
g138
tp882
(lp883
(I31
g171
tp884
a(I32
g21
tp885
as(S'1323050771'
p886
S'42.3680244'
p887
S'-71.1153473'
p888
g121
tp889
(lp890
(I260
g88
tp891
a(I219
g83
tp892
a(I214
g10
tp893
a(I213
g32
tp894
a(I226
g86
tp895
a(I220
g116
tp896
a(I185
g171
tp897
a(I191
g88
tp898
as(S'1323051314'
p899
g481
g482
g192
tp900
(lp901
(I219
g303
tp902
a(I214
g12
tp903
a(I213
g114
tp904
a(I220
g12
tp905
a(I191
g21
tp906
as(S'1323041135'
p907
S'37.4229805'
p908
g58
g95
tp909
(lp910
(I89
g447
tp911
a(I90
g64
tp912
a(I91
g110
tp913
as(S'1323051654'
p914
g297
g298
g138
tp915
(lp916
(I223
g174
tp917
a(I219
g303
tp918
a(I214
g116
tp919
a(I185
g127
tp920
a(I213
g52
tp921
a(I191
g37
tp922
a(I220
g525
tp923
as(S'1323050597'
p924
g40
g41
g42
tp925
(lp926
(I214
g62
tp927
a(I186
g17
tp928
a(I191
g30
tp929
a(I213
g37
tp930
a(I220
g261
tp931
as(S'1323051459'
p932
g336
g337
g338
tp933
(lp934
(I1
g116
tp935
as(S'1323055052'
p936
S'57.0755103'
p937
S'10.2576453'
p938
S'52'
p939
tp940
(lp941
(I266
g159
tp942
as(S'1323055060'
p943
g336
g337
g338
tp944
(lp945
(I1
g145
tp946
a(I3
g385
tp947
a(I2
g385
tp948
as(S'1323040634'
p949
S'37.4229608'
p950
S'-122.1575521'
p951
S'31'
p952
tp953
(lp954
(I89
g435
tp955
a(I90
g15
tp956
a(I92
g163
tp957
a(I91
g447
tp958
as(S'1323056830'
p959
g875
g876
g877
tp960
(lp961
(I292
g37
tp962
as(S'1323060450'
p963
S'37.8779804'
p964
S'-122.2598041'
p965
g138
tp966
(lp967
(I35
S'-52'
p968
tp969
a(I37
g127
tp970
a(I54
g236
tp971
a(I38
g30
tp972
a(I55
g149
tp973
a(I41
g37
tp974
a(I53
g37
tp975
a(I307
g21
tp976
a(I98
g37
tp977
a(I52
g35
tp978
a(I50
g35
tp979
a(I42
g525
tp980
a(I43
g245
tp981
a(I44
g159
tp982
a(I46
g37
tp983
a(I88
g236
tp984
as(S'1323047275'
p985
g336
g337
g338
tp986
(lp987
(I1
g62
tp988
as(S'1323047857'
p989
g336
g337
g338
tp990
(lp991
(I1
g49
tp992
as(S'1323050338'
p993
S'42.3679161'
p994
S'-71.1158541'
p995
g338
tp996
(lp997
(I221
g88
tp998
a(I219
g116
tp999
a(I214
g49
tp1000
a(I220
g159
tp1001
a(I213
g30
tp1002
a(I227
g30
tp1003
as(S'1323050852'
p1004
g937
g938
g939
tp1005
(lp1006
(I266
g223
tp1007
as(S'1323041090'
p1008
S'37.4229748'
p1009
S'-122.1575877'
p1010
g95
tp1011
(lp1012
(I89
g8
tp1013
a(I90
g163
tp1014
a(I92
g32
tp1015
a(I91
g245
tp1016
as(S'1323041837'
p1017
S'37.4229250'
p1018
S'-122.1575495'
p1019
g106
tp1020
(lp1021
(I91
g81
tp1022
a(I89
g141
tp1023
a(I90
g15
tp1024
a(I95
g37
tp1025
as(S'1323049192'
p1026
S'42.3682614'
p1027
S'-71.1155075'
p1028
g338
tp1029
(lp1030
(I192
g47
tp1031
a(I208
g159
tp1032
a(I185
g64
tp1033
a(I190
g17
tp1034
a(I195
g32
tp1035
a(I182
g32
tp1036
a(I188
g37
tp1037
a(I204
g64
tp1038
a(I211
g174
tp1039
a(I192
g47
tp1040
a(I208
g159
tp1041
a(I185
g64
tp1042
a(I190
g17
tp1043
a(I195
g32
tp1044
a(I182
g32
tp1045
a(I188
g37
tp1046
a(I204
g64
tp1047
a(I211
g174
tp1048
a(I192
g47
tp1049
a(I208
g159
tp1050
a(I185
g64
tp1051
a(I190
g17
tp1052
a(I195
g32
tp1053
a(I182
g32
tp1054
a(I188
g37
tp1055
a(I204
g64
tp1056
a(I211
g174
tp1057
as(S'1323051299'
p1058
g481
g482
g192
tp1059
(lp1060
(I214
g127
tp1061
a(I219
g129
tp1062
a(I213
g149
tp1063
a(I185
g32
tp1064
a(I220
g10
tp1065
as(S'1323051284'
p1066
g481
g482
g192
tp1067
(lp1068
(I267
g125
tp1069
a(I219
g116
tp1070
a(I214
g127
tp1071
a(I213
g64
tp1072
a(I185
g17
tp1073
a(I220
g17
tp1074
as(S'1323044976'
p1075
S'52.9293717'
p1076
S'-1.2164426'
p1077
g420
tp1078
(lp1079
(I11
g81
tp1080
a(I13
g62
tp1081
a(I14
g159
tp1082
a(I17
g52
tp1083
a(I15
g12
tp1084
a(I16
g17
tp1085
a(I57
g30
tp1086
a(I34
g19
tp1087
a(I22
g21
tp1088
a(I24
g88
tp1089
a(I21
g88
tp1090
a(I63
g125
tp1091
a(I26
g52
tp1092
a(I25
g52
tp1093
a(I27
g35
tp1094
a(I28
g88
tp1095
as(S'1323051778'
p1096
g481
g482
g192
tp1097
(lp1098
(I221
g171
tp1099
a(I223
g21
tp1100
a(I260
g174
tp1101
a(I219
g49
tp1102
a(I213
g64
tp1103
a(I185
g30
tp1104
a(I214
g37
tp1105
a(I220
g17
tp1106
as(S'1323048389'
p1107
S'37.4236853'
p1108
S'-122.1587159'
p1109
S'33'
p1110
tp1111
(lp1112
(I159
g26
tp1113
a(I150
g12
tp1114
a(I148
g114
tp1115
a(I161
g145
tp1116
as(S'1323049989'
p1117
S'42.3685862'
p1118
S'-71.1152406'
p1119
g106
tp1120
(lp1121
(I189
g163
tp1122
a(I215
g17
tp1123
a(I195
g303
tp1124
a(I185
g83
tp1125
a(I182
g127
tp1126
a(I243
g114
tp1127
a(I241
g30
tp1128
a(I183
g149
tp1129
a(I188
g30
tp1130
a(I244
g19
tp1131
a(I245
g19
tp1132
a(I246
g21
tp1133
a(I189
g163
tp1134
a(I215
g17
tp1135
a(I195
g303
tp1136
a(I185
g83
tp1137
a(I182
g127
tp1138
a(I243
g114
tp1139
a(I241
g30
tp1140
a(I183
g149
tp1141
a(I188
g30
tp1142
a(I244
g19
tp1143
a(I245
g19
tp1144
a(I246
g21
tp1145
as(S'1323037447'
p1146
S'18.9636873'
p1147
S'72.8208588'
p1148
S'56'
p1149
tp1150
(lp1151
(I62
g49
tp1152
as(S'1323050004'
p1153
S'42.3685736'
p1154
S'-71.1151470'
p1155
g192
tp1156
(lp1157
(I189
g17
tp1158
a(I182
g83
tp1159
a(I195
g129
tp1160
a(I185
g288
tp1161
a(I245
g236
tp1162
a(I187
g64
tp1163
a(I238
g64
tp1164
a(I241
g114
tp1165
a(I247
g163
tp1166
a(I188
g64
tp1167
a(I171
g35
tp1168
a(I189
g17
tp1169
a(I182
g83
tp1170
a(I195
g129
tp1171
a(I185
g288
tp1172
a(I245
g236
tp1173
a(I187
g64
tp1174
a(I238
g64
tp1175
a(I241
g114
tp1176
a(I247
g163
tp1177
a(I188
g64
tp1178
a(I171
g35
tp1179
as(S'1323051354'
p1180
g481
g482
g192
tp1181
(lp1182
(I223
g125
tp1183
a(I219
g62
tp1184
a(I214
g127
tp1185
a(I213
g288
tp1186
a(I191
g30
tp1187
a(I220
g17
tp1188
as(S'1323047736'
p1189
S'37.4228697'
p1190
S'-122.1574902'
p1191
S'61'
p1192
tp1193
(lp1194
(I97
g114
tp1195
a(I139
g83
tp1196
a(I91
g288
tp1197
a(I89
g15
tp1198
a(I90
g114
tp1199
a(I140
g163
tp1200
a(I104
g30
tp1201
a(I103
g32
tp1202
as(S'1323050854'
p1203
S'42.3680095'
p1204
S'-71.1154444'
p1205
g106
tp1206
(lp1207
(I224
g171
tp1208
a(I219
g145
tp1209
a(I214
g49
tp1210
a(I185
g15
tp1211
a(I213
g30
tp1212
a(I220
g52
tp1213
a(I191
g19
tp1214
as(S'1323058029'
p1215
g875
g876
g877
tp1216
(lp1217
(I292
g30
tp1218
as(S'1323050937'
p1219
g481
g482
g192
tp1220
(lp1221
(I219
g62
tp1222
a(I213
g288
tp1223
a(I214
g15
tp1224
a(I220
g64
tp1225
as(S'1323048578'
p1226
S'52.9293202'
p1227
S'-1.2165639'
p1228
g1110
tp1229
(lp1230
(I13
g127
tp1231
a(I16
g159
tp1232
a(I15
g114
tp1233
a(I14
g163
tp1234
a(I17
g163
tp1235
a(I57
g88
tp1236
a(I22
g271
tp1237
a(I21
g271
tp1238
a(I34
g125
tp1239
a(I85
g125
tp1240
a(I19
g125
tp1241
a(I20
g385
tp1242
a(I24
g385
tp1243
a(I63
g433
tp1244
a(I11
g81
tp1245
a(I25
g163
tp1246
a(I26
g17
tp1247
a(I27
g174
tp1248
a(I28
g271
tp1249
as(S'1323050153'
p1250
S'42.3682670'
p1251
S'-71.1154129'
p1252
g192
tp1253
(lp1254
(I215
g86
tp1255
a(I182
g47
tp1256
a(I185
g159
tp1257
a(I183
g163
tp1258
a(I192
g17
tp1259
a(I195
g30
tp1260
a(I188
g114
tp1261
as(S'1323040045'
p1262
S'37.8780122'
p1263
S'-122.2597131'
p1264
g70
tp1265
(lp1266
(I35
g187
tp1267
a(I37
g288
tp1268
a(I39
g10
tp1269
a(I53
g114
tp1270
a(I38
g149
tp1271
a(I52
g149
tp1272
a(I87
g37
tp1273
a(I54
g86
tp1274
a(I55
g19
tp1275
a(I50
g21
tp1276
a(I42
g303
tp1277
a(I43
g83
tp1278
a(I44
g10
tp1279
a(I88
g86
tp1280
as(S'1323050816'
p1281
g104
g105
S'15'
p1282
tp1283
(lp1284
(I260
g174
tp1285
a(I219
g28
tp1286
a(I214
g127
tp1287
a(I213
g114
tp1288
a(I220
g83
tp1289
as(g296
S'57.0755193'
p1290
S'10.2576370'
p1291
g939
tp1292
(lp1293
(I266
S'-44'
p1294
tp1295
a(I270
g21
tp1296
as(S'1323040529'
p1297
S'37.4229798'
p1298
S'-122.1575618'
p1299
g95
tp1300
(lp1301
(I91
g187
tp1302
a(I89
g26
tp1303
a(I90
g64
tp1304
a(I93
g37
tp1305
as(S'1323050096'
p1306
S'57.0728924'
p1307
S'10.2593025'
p1308
g138
tp1309
(lp1310
(I252
g32
tp1311
a(I253
g30
tp1312
as(S'1323040738'
p1313
S'37.4230044'
p1314
S'-122.1575933'
p1315
g1110
tp1316
(lp1317
(I89
g1294
tp1318
a(I94
g17
tp1319
a(I92
g17
tp1320
a(I91
g47
tp1321
as(S'1323061659'
p1322
g457
g458
g338
tp1323
(lp1324
(I1
g62
tp1325
a(I2
g385
tp1326
as(S'1323061060'
p1327
g336
g337
g338
tp1328
(lp1329
(I1
g145
tp1330
as(S'1323035388'
p1331
S'52.9293004'
p1332
S'-1.2164192'
p1333
g420
tp1334
(lp1335
(I11
g116
tp1336
a(I12
g83
tp1337
a(I14
g127
tp1338
a(I15
g159
tp1339
a(I16
g10
tp1340
a(I17
g236
tp1341
a(I13
g163
tp1342
a(I19
g21
tp1343
a(I34
g271
tp1344
a(I21
g271
tp1345
a(I24
g385
tp1346
a(I26
g15
tp1347
a(I25
g15
tp1348
a(I28
g88
tp1349
a(I27
g88
tp1350
as(S'1323049315'
p1351
S'42.3682886'
p1352
S'-71.1156960'
p1353
g338
tp1354
(lp1355
(I209
g182
tp1356
a(I211
g83
tp1357
a(I185
g15
tp1358
a(I191
g64
tp1359
a(I213
g114
tp1360
a(I195
g17
tp1361
a(I214
g86
tp1362
a(I212
g163
tp1363
a(I209
g182
tp1364
a(I211
g83
tp1365
a(I185
g15
tp1366
a(I191
g64
tp1367
a(I213
g114
tp1368
a(I195
g17
tp1369
a(I214
g86
tp1370
a(I212
g163
tp1371
a(I209
g182
tp1372
a(I211
g83
tp1373
a(I185
g15
tp1374
a(I191
g64
tp1375
a(I213
g114
tp1376
a(I195
g17
tp1377
a(I214
g86
tp1378
a(I212
g163
tp1379
a(I209
g182
tp1380
a(I211
g83
tp1381
a(I185
g15
tp1382
a(I191
g64
tp1383
a(I213
g114
tp1384
a(I195
g17
tp1385
a(I214
g86
tp1386
a(I212
g163
tp1387
as(S'1323053246'
p1388
S'37.8780356'
p1389
S'-122.2597332'
p1390
g70
tp1391
(lp1392
(I35
g81
tp1393
a(I52
g30
tp1394
a(I37
g236
tp1395
a(I87
g35
tp1396
a(I42
g145
tp1397
a(I43
g261
tp1398
a(I44
g15
tp1399
a(I46
g174
tp1400
as(S'1323054183'
p1401
S'39.3834550'
p1402
S'-76.4896570'
p1403
S'6'
tp1404
(lp1405
(I1
g141
tp1406
as(S'1323035842'
p1407
S'37.8780327'
p1408
S'-122.2597151'
p1409
g138
tp1410
(lp1411
(I35
g145
tp1412
a(I36
g86
tp1413
a(I37
g86
tp1414
a(I38
g19
tp1415
a(I39
g21
tp1416
a(I40
g174
tp1417
a(I41
g174
tp1418
a(I42
g447
tp1419
a(I43
g10
tp1420
a(I44
g236
tp1421
a(I45
g149
tp1422
a(I46
g86
tp1423
a(I47
g37
tp1424
a(I48
g35
tp1425
as(S'1323049114'
p1426
S'37.4234927'
p1427
S'-122.1583625'
p1428
S'74'
p1429
tp1430
(lp1431
(I150
g261
tp1432
a(I148
g127
tp1433
a(I202
g163
tp1434
a(I157
g149
tp1435
a(I203
g149
tp1436
a(I158
g17
tp1437
a(I92
g163
tp1438
a(I150
g261
tp1439
a(I148
g127
tp1440
a(I202
g163
tp1441
a(I157
g149
tp1442
a(I203
g149
tp1443
a(I158
g17
tp1444
a(I92
g163
tp1445
as(S'1323040828'
p1446
S'37.4229649'
p1447
S'-122.1576213'
p1448
g815
tp1449
(lp1450
(I89
g223
tp1451
a(I91
g968
tp1452
a(I94
g64
tp1453
a(I92
g163
tp1454
a(I95
g17
tp1455
a(I100
g171
tp1456
a(I103
g32
tp1457
as(S'1323042096'
p1458
S'37.4229913'
p1459
S'-122.1576090'
p1460
g754
tp1461
(lp1462
(I89
S'-46'
p1463
tp1464
a(I91
g525
tp1465
a(I94
g163
tp1466
a(I95
g86
tp1467
as(S'1323058660'
p1468
g457
g458
g338
tp1469
(lp1470
(I1
g435
tp1471
a(I2
g125
tp1472
as(S'1323034750'
p1473
g397
g398
g138
tp1474
(lp1475
(I31
g64
tp1476
a(I32
g32
tp1477
as(S'1323060461'
p1478
g457
g458
g338
tp1479
(lp1480
(I1
g157
tp1481
a(I2
g385
tp1482
as(S'1323049608'
p1483
S'42.3682897'
p1484
S'-71.1156137'
p1485
g121
tp1486
(lp1487
(I185
g12
tp1488
a(I213
g236
tp1489
a(I219
g236
tp1490
a(I211
g32
tp1491
a(I214
g171
tp1492
a(I220
g86
tp1493
a(I185
g12
tp1494
a(I213
g236
tp1495
a(I219
g236
tp1496
a(I211
g32
tp1497
a(I214
g171
tp1498
a(I220
g86
tp1499
as(S'1323052046'
p1500
S'37.4252815'
p1501
S'-122.1729787'
p1502
g138
tp1503
(lp1504
(I273
g32
tp1505
a(I274
g32
tp1506
as(S'1323041237'
p1507
S'37.4229120'
p1508
S'-122.1575652'
p1509
S'23'
p1510
tp1511
(lp1512
(I89
g968
tp1513
a(I91
g182
tp1514
a(I90
g288
tp1515
a(I94
g163
tp1516
a(I103
g37
tp1517
a(I93
g149
tp1518
as(S'1323061647'
p1519
S'37.8780062'
p1520
S'-122.2597145'
p1521
g138
tp1522
(lp1523
(I35
g73
tp1524
a(I37
g127
tp1525
a(I38
g114
tp1526
a(I50
g149
tp1527
a(I41
g21
tp1528
a(I98
g86
tp1529
a(I53
g88
tp1530
a(I43
g245
tp1531
a(I42
g141
tp1532
a(I44
g28
tp1533
a(I51
g32
tp1534
a(I46
g86
tp1535
as(S'1323055652'
p1536
S'57.0750210'
p1537
S'10.2565592'
p1538
S'75'
p1539
tp1540
(lp1541
(I293
g62
tp1542
a(I294
g52
tp1543
as(S'1323041680'
p1544
S'37.4229899'
p1545
S'-122.1575641'
p1546
g493
tp1547
(lp1548
(I89
g1294
tp1549
a(I90
g12
tp1550
a(I91
g447
tp1551
as(S'1323054074'
p1552
S'37.8777793'
p1553
S'-122.2599096'
p1554
S'44'
p1555
tp1556
(lp1557
(I35
g116
tp1558
a(I37
g114
tp1559
a(I41
g19
tp1560
a(I42
g62
tp1561
a(I43
g159
tp1562
a(I44
g52
tp1563
a(I51
g174
tp1564
as(S'1323050094'
p1565
S'42.3685273'
p1566
S'-71.1152382'
p1567
g338
tp1568
(lp1569
(I189
g17
tp1570
a(I215
g12
tp1571
a(I182
g157
tp1572
a(I185
g83
tp1573
a(I195
g159
tp1574
a(I192
g236
tp1575
a(I187
g64
tp1576
a(I216
g64
tp1577
a(I183
g163
tp1578
a(I254
g17
tp1579
a(I241
g30
tp1580
a(I242
g32
tp1581
a(I198
g12
tp1582
a(I255
g19
tp1583
a(I188
g19
tp1584
as(S'1323053860'
p1585
g336
g337
g338
tp1586
(lp1587
(I1
g145
tp1588
as(S'1323051413'
p1589
g481
g482
g192
tp1590
(lp1591
(I221
g174
tp1592
a(I219
g127
tp1593
a(I213
g159
tp1594
a(I214
g52
tp1595
a(I220
g30
tp1596
as(S'1323046656'
p1597
g457
g458
g338
tp1598
(lp1599
(I1
g145
tp1600
as(S'1323045457'
p1601
S'39.3834572'
p1602
S'-76.4896613'
p1603
S'12'
p1604
tp1605
(lp1606
(I1
g182
tp1607
a(I2
g385
tp1608
as(S'1323050507'
p1609
S'42.3679233'
p1610
S'-71.1154046'
p1611
g42
tp1612
(lp1613
(I223
g21
tp1614
a(I214
g141
tp1615
a(I213
g64
tp1616
a(I191
g114
tp1617
a(I185
g163
tp1618
a(I220
g83
tp1619
as(S'1323048440'
p1620
S'37.4236985'
p1621
S'-122.1587237'
p1622
g59
tp1623
(lp1624
(I159
g525
tp1625
a(I150
g236
tp1626
a(I148
g30
tp1627
a(I152
g32
tp1628
a(I161
g110
tp1629
a(I159
g525
tp1630
a(I150
g236
tp1631
a(I148
g30
tp1632
a(I152
g32
tp1633
a(I161
g110
tp1634
as(S'1323049202'
p1635
S'42.3683114'
p1636
S'-71.1157925'
p1637
g338
tp1638
(lp1639
(I192
g245
tp1640
a(I185
g261
tp1641
a(I208
g129
tp1642
a(I209
g163
tp1643
a(I190
g30
tp1644
a(I195
g37
tp1645
a(I204
g236
tp1646
a(I191
g19
tp1647
a(I211
g171
tp1648
a(I192
g245
tp1649
a(I185
g261
tp1650
a(I208
g129
tp1651
a(I209
g163
tp1652
a(I190
g30
tp1653
a(I195
g37
tp1654
a(I204
g236
tp1655
a(I191
g19
tp1656
a(I211
g171
tp1657
a(I192
g245
tp1658
a(I185
g261
tp1659
a(I208
g129
tp1660
a(I209
g163
tp1661
a(I190
g30
tp1662
a(I195
g37
tp1663
a(I204
g236
tp1664
a(I191
g19
tp1665
a(I211
g171
tp1666
as(S'1323050997'
p1667
S'37.8780713'
p1668
S'-122.2597651'
p1669
g70
tp1670
(lp1671
(I35
g47
tp1672
a(I37
g10
tp1673
a(I52
g114
tp1674
a(I54
g37
tp1675
a(I87
g86
tp1676
a(I40
g86
tp1677
a(I50
g163
tp1678
a(I36
g19
tp1679
a(I42
g447
tp1680
a(I43
g10
tp1681
a(I44
g52
tp1682
a(I88
g32
tp1683
a(I48
g86
tp1684
as(S'1323056633'
p1685
g442
g443
g121
tp1686
(lp1687
(I108
g30
tp1688
a(I109
g47
tp1689
a(I111
g261
tp1690
a(I114
g83
tp1691
a(I110
g10
tp1692
a(I113
g114
tp1693
a(I112
g114
tp1694
a(I118
g163
tp1695
a(I115
g149
tp1696
a(I119
g30
tp1697
a(I116
g12
tp1698
a(I120
g21
tp1699
as(S'1323049851'
p1700
S'42.3678355'
p1701
S'-71.1153169'
p1702
g42
tp1703
(lp1704
(I224
g19
tp1705
a(I223
g88
tp1706
a(I221
g88
tp1707
a(I219
g83
tp1708
a(I213
g159
tp1709
a(I214
g236
tp1710
a(I220
g32
tp1711
as(S'1323046042'
p1712
S'37.4239099'
p1713
S'-122.1741930'
p1714
g138
tp1715
(lp1716
(I31
g86
tp1717
as(S'1323051145'
p1718
g481
g482
g192
tp1719
(lp1720
(I219
g28
tp1721
a(I214
g159
tp1722
a(I213
g52
tp1723
a(I220
g114
tp1724
a(I185
g19
tp1725
as(S'1323051369'
p1726
g481
g482
g192
tp1727
(lp1728
(I221
g171
tp1729
a(I219
g110
tp1730
a(I214
g435
tp1731
a(I213
g288
tp1732
a(I185
g236
tp1733
a(I191
g163
tp1734
a(I220
g261
tp1735
a(I226
g171
tp1736
as(S'1323049756'
p1737
S'42.3680008'
p1738
S'-71.1154321'
p1739
g192
tp1740
(lp1741
(I221
g271
tp1742
a(I219
g261
tp1743
a(I214
g159
tp1744
a(I185
g30
tp1745
a(I213
g37
tp1746
a(I220
g236
tp1747
as(S'1323053988'
p1748
S'52.9293112'
p1749
S'-1.2164787'
p1750
g420
tp1751
(lp1752
(I11
g141
tp1753
a(I13
g83
tp1754
a(I14
g10
tp1755
a(I17
g64
tp1756
a(I15
g30
tp1757
a(I16
g37
tp1758
a(I34
g86
tp1759
a(I19
g171
tp1760
a(I21
g21
tp1761
a(I20
g174
tp1762
a(I57
g174
tp1763
a(I56
g174
tp1764
a(I58
g271
tp1765
a(I63
g271
tp1766
a(I59
g125
tp1767
a(I22
g125
tp1768
a(I24
g433
tp1769
a(I26
g114
tp1770
a(I25
g30
tp1771
a(I28
g171
tp1772
a(I27
g21
tp1773
a(I61
g271
tp1774
as(S'1323041238'
p1775
S'37.4229836'
p1776
S'-122.1576006'
p1777
g1110
tp1778
(lp1779
(I97
g86
tp1780
a(I89
g223
tp1781
a(I91
g81
tp1782
a(I90
g10
tp1783
a(I96
g19
tp1784
a(I104
g32
tp1785
as(S'1323049330'
p1786
S'42.3683063'
p1787
S'-71.1155469'
p1788
g338
tp1789
(lp1790
(I209
g49
tp1791
a(I211
g49
tp1792
a(I185
g10
tp1793
a(I195
g236
tp1794
a(I191
g114
tp1795
a(I212
g30
tp1796
a(I204
g114
tp1797
a(I209
g49
tp1798
a(I211
g49
tp1799
a(I185
g10
tp1800
a(I195
g236
tp1801
a(I191
g114
tp1802
a(I212
g30
tp1803
a(I204
g114
tp1804
a(I209
g49
tp1805
a(I211
g49
tp1806
a(I185
g10
tp1807
a(I195
g236
tp1808
a(I191
g114
tp1809
a(I212
g30
tp1810
a(I204
g114
tp1811
as(S'1323056663'
p1812
g442
g443
g121
tp1813
(lp1814
(I108
g149
tp1815
a(I109
g187
tp1816
a(I111
g81
tp1817
a(I110
g83
tp1818
a(I113
g17
tp1819
a(I118
g86
tp1820
a(I119
g114
tp1821
a(I114
g12
tp1822
as(S'1323042548'
p1823
S'57.0744143'
p1824
S'10.2562629'
p1825
g420
tp1826
(lp1827
(I8
g968
tp1828
a(I9
g149
tp1829
as(S'1323049716'
p1830
S'42.3679863'
p1831
S'-71.1155061'
p1832
g121
tp1833
(lp1834
(I221
g171
tp1835
a(I231
g174
tp1836
a(I219
g435
tp1837
a(I214
g157
tp1838
a(I213
g12
tp1839
a(I185
g15
tp1840
a(I220
g52
tp1841
as(S'1323050629'
p1842
g40
g41
g42
tp1843
(lp1844
(I223
g30
tp1845
a(I221
g149
tp1846
a(I263
g21
tp1847
a(I219
g26
tp1848
a(I214
g64
tp1849
a(I213
g37
tp1850
a(I220
g10
tp1851
as(S'1323042021'
p1852
S'37.4229828'
p1853
S'-122.1575778'
p1854
S'39'
p1855
tp1856
(lp1857
(I89
g47
tp1858
a(I91
g187
tp1859
a(I100
g37
tp1860
as(S'1323050138'
p1861
S'42.3681696'
p1862
S'-71.1151432'
p1863
g121
tp1864
(lp1865
(I162
g21
tp1866
a(I215
g35
tp1867
a(I182
g157
tp1868
a(I185
g129
tp1869
a(I183
g159
tp1870
a(I248
g236
tp1871
a(I216
g236
tp1872
a(I192
g114
tp1873
a(I195
g114
tp1874
a(I188
g236
tp1875
a(I171
g149
tp1876
a(I198
g64
tp1877
as(S'1323051079'
p1878
g481
g482
g192
tp1879
(lp1880
(I224
g171
tp1881
a(I223
g21
tp1882
a(I219
g49
tp1883
a(I214
g288
tp1884
a(I213
g236
tp1885
a(I191
g32
tp1886
a(I220
g17
tp1887
as(S'1323041250'
p1888
S'37.4229820'
p1889
S'-122.1575594'
p1890
g95
tp1891
(lp1892
(I89
S'-43'
p1893
tp1894
a(I90
g10
tp1895
a(I91
g110
tp1896
as(S'1323056244'
p1897
g875
g876
g877
tp1898
(lp1899
(I292
g52
tp1900
as(S'1323041931'
p1901
g724
g725
g95
tp1902
(lp1903
(I89
g81
tp1904
a(I90
g114
tp1905
a(I91
g141
tp1906
as(S'1323051170'
p1907
g481
g482
g192
tp1908
(lp1909
(I224
g19
tp1910
a(I221
g88
tp1911
a(I260
g88
tp1912
a(I219
g83
tp1913
a(I214
g288
tp1914
a(I213
g15
tp1915
a(I185
g64
tp1916
a(I220
g15
tp1917
as(S'1323049675'
p1918
S'42.3678041'
p1919
S'-71.1156461'
p1920
g42
tp1921
(lp1922
(I221
g21
tp1923
a(I220
g116
tp1924
a(I219
g116
tp1925
a(I214
g28
tp1926
a(I213
g17
tp1927
a(I191
g149
tp1928
a(I226
g37
tp1929
a(I186
g19
tp1930
a(I185
g21
tp1931
a(I227
g86
tp1932
as(S'1323061181'
p1933
S'52.9292503'
p1934
S'-1.2165064'
p1935
g138
tp1936
(lp1937
(I11
g110
tp1938
a(I13
g157
tp1939
a(I14
g10
tp1940
a(I17
g114
tp1941
a(I57
g30
tp1942
a(I56
g19
tp1943
a(I21
g19
tp1944
a(I63
g88
tp1945
a(I26
g64
tp1946
a(I25
g163
tp1947
a(I27
g19
tp1948
as(S'1323041952'
p1949
g397
g398
g138
tp1950
(lp1951
(I31
g21
tp1952
a(I32
g21
tp1953
as(S'1323049647'
p1954
S'37.8780589'
p1955
S'-122.2597350'
p1956
g70
tp1957
(lp1958
(I35
g47
tp1959
a(I50
g10
tp1960
a(I37
g10
tp1961
a(I87
g114
tp1962
a(I52
g17
tp1963
a(I36
g30
tp1964
a(I54
g30
tp1965
a(I38
g149
tp1966
a(I40
g35
tp1967
a(I99
g174
tp1968
a(I98
g21
tp1969
a(I43
g141
tp1970
a(I42
g145
tp1971
a(I44
g52
tp1972
a(I106
g37
tp1973
a(I51
g35
tp1974
a(I88
g114
tp1975
a(I48
g21
tp1976
as(S'1323047811'
p1977
S'37.4231727'
p1978
S'-122.1580966'
p1979
g939
tp1980
(lp1981
(I145
g32
tp1982
a(I149
g19
tp1983
a(I150
g157
tp1984
a(I148
g236
tp1985
a(I151
g64
tp1986
a(I152
g163
tp1987
a(I153
g30
tp1988
a(I100
g149
tp1989
a(I103
g37
tp1990
a(I93
g30
tp1991
as(S'1323050644'
p1992
S'42.3679432'
p1993
S'-71.1155227'
p1994
g42
tp1995
(lp1996
(I223
g21
tp1997
a(I214
g447
tp1998
a(I219
g110
tp1999
a(I191
g114
tp2000
a(I213
g163
tp2001
a(I186
g86
tp2002
a(I220
g116
tp2003
as(S'1323041740'
p2004
S'37.4229730'
p2005
S'-122.1575637'
p2006
g192
tp2007
(lp2008
(I89
g968
tp2009
a(I90
g15
tp2010
a(I91
g187
tp2011
as(S'1323042173'
p2012
g442
g443
g121
tp2013
(lp2014
(I108
g35
tp2015
a(I109
g245
tp2016
a(I110
g261
tp2017
a(I111
g127
tp2018
a(I112
g64
tp2019
a(I113
g149
tp2020
a(I114
g149
tp2021
a(I115
g37
tp2022
a(I116
g149
tp2023
a(I117
g21
tp2024
a(I118
g21
tp2025
a(I119
g171
tp2026
as(S'1323055818'
p2027
S'52.9293223'
p2028
S'-1.2164660'
p2029
g420
tp2030
(lp2031
(I11
g141
tp2032
a(I13
g62
tp2033
a(I14
g129
tp2034
a(I16
g15
tp2035
a(I15
g17
tp2036
a(I57
g37
tp2037
a(I34
g37
tp2038
a(I24
g35
tp2039
a(I19
g88
tp2040
a(I21
g174
tp2041
a(I22
g271
tp2042
a(I58
g271
tp2043
a(I63
g271
tp2044
a(I26
g163
tp2045
a(I25
g86
tp2046
a(I27
g35
tp2047
a(I86
g88
tp2048
a(I28
g174
tp2049
a(I61
g271
tp2050
as(S'1323050965'
p2051
g481
g482
g192
tp2052
(lp2053
(I219
g129
tp2054
a(I213
g64
tp2055
a(I214
g163
tp2056
a(I185
g86
tp2057
a(I220
g163
tp2058
as(S'1323043778'
p2059
S'52.9293501'
p2060
S'-1.2164314'
p2061
g420
tp2062
(lp2063
(I11
g182
tp2064
a(I13
g435
tp2065
a(I14
g83
tp2066
a(I15
g12
tp2067
a(I16
g236
tp2068
a(I17
g114
tp2069
a(I57
g37
tp2070
a(I34
g35
tp2071
a(I56
g271
tp2072
a(I19
g271
tp2073
a(I22
g385
tp2074
a(I26
g12
tp2075
a(I25
g12
tp2076
a(I27
g35
tp2077
a(I28
g35
tp2078
as(S'1323052649'
p2079
S'37.8780177'
p2080
S'-122.2597058'
p2081
g70
tp2082
(lp2083
(I35
g447
tp2084
a(I37
g52
tp2085
a(I40
g163
tp2086
a(I41
g149
tp2087
a(I87
g37
tp2088
a(I52
g37
tp2089
a(I39
g86
tp2090
a(I54
g19
tp2091
a(I99
g21
tp2092
a(I129
g35
tp2093
a(I53
g35
tp2094
a(I98
g21
tp2095
a(I42
g47
tp2096
a(I43
g157
tp2097
a(I44
g83
tp2098
a(I51
g163
tp2099
a(I48
g30
tp2100
a(I88
g37
tp2101
as(S'1323051885'
p2102
g481
g482
g192
tp2103
(lp2104
(I221
g171
tp2105
a(I219
g288
tp2106
a(I213
g15
tp2107
a(I214
g163
tp2108
a(I220
g114
tp2109
as(S'1323041975'
p2110
g618
g619
g420
tp2111
(lp2112
(I11
g245
tp2113
a(I57
g127
tp2114
a(I13
g129
tp2115
a(I14
g288
tp2116
a(I12
g52
tp2117
a(I15
g12
tp2118
a(I16
g236
tp2119
a(I21
g149
tp2120
a(I17
g32
tp2121
a(I19
g171
tp2122
a(I24
g88
tp2123
a(I22
g174
tp2124
a(I34
g174
tp2125
a(I56
g125
tp2126
a(I28
g30
tp2127
a(I27
g30
tp2128
a(I26
g149
tp2129
a(I25
g32
tp2130
as(S'1323049120'
p2131
S'42.3683069'
p2132
S'-71.1156580'
p2133
g338
tp2134
(lp2135
(I195
g116
tp2136
a(I192
g116
tp2137
a(I197
g15
tp2138
a(I187
g64
tp2139
a(I196
g163
tp2140
a(I185
g17
tp2141
a(I198
g110
tp2142
as(S'1323052067'
p2143
S'42.3681974'
p2144
S'-71.1151847'
p2145
S'10'
p2146
tp2147
(lp2148
(I162
g30
tp2149
a(I275
g174
tp2150
a(I183
g157
tp2151
a(I182
g149
tp2152
a(I171
g159
tp2153
a(I188
g30
tp2154
a(I185
g86
tp2155
a(I164
g174
tp2156
as(S'1323041710'
p2157
S'37.4229459'
p2158
S'-122.1575531'
p2159
S'27'
p2160
tp2161
(lp2162
(I89
g1893
tp2163
a(I91
g26
tp2164
a(I90
g12
tp2165
a(I95
g149
tp2166
a(I93
g17
tp2167
as(S'1323050996'
p2168
g481
g482
g192
tp2169
(lp2170
(I223
g30
tp2171
a(I221
g30
tp2172
a(I219
g261
tp2173
a(I213
g64
tp2174
a(I214
g64
tp2175
a(I220
g163
tp2176
a(I191
g21
tp2177
a(I226
g21
tp2178
a(I81
g174
tp2179
as(S'1323050109'
p2180
S'42.3685037'
p2181
S'-71.1151586'
p2182
g121
tp2183
(lp2184
(I189
g114
tp2185
a(I195
g49
tp2186
a(I182
g83
tp2187
a(I255
g159
tp2188
a(I185
g12
tp2189
a(I241
g12
tp2190
a(I238
g64
tp2191
a(I183
g64
tp2192
a(I235
g17
tp2193
a(I242
g86
tp2194
a(I188
g163
tp2195
a(I256
g30
tp2196
a(I189
g114
tp2197
a(I195
g49
tp2198
a(I182
g83
tp2199
a(I255
g159
tp2200
a(I185
g12
tp2201
a(I241
g12
tp2202
a(I238
g64
tp2203
a(I183
g64
tp2204
a(I235
g17
tp2205
a(I242
g86
tp2206
a(I188
g163
tp2207
a(I256
g30
tp2208
as(S'1323041165'
p2209
S'37.4229574'
p2210
S'-122.1575820'
p2211
S'38'
p2212
tp2213
(lp2214
(I89
g447
tp2215
a(I91
g26
tp2216
a(I90
g15
tp2217
a(I100
g19
tp2218
as(S'1323050290'
p2219
S'42.3681051'
p2220
S'-71.1153715'
p2221
g42
tp2222
(lp2223
(I223
g271
tp2224
a(I219
g52
tp2225
a(I213
g12
tp2226
a(I214
g114
tp2227
a(I211
g32
tp2228
a(I220
g163
tp2229
a(I223
g271
tp2230
a(I219
g52
tp2231
a(I213
g12
tp2232
a(I214
g114
tp2233
a(I211
g32
tp2234
a(I220
g163
tp2235
as(S'1323051160'
p2236
g481
g482
g192
tp2237
(lp2238
(I219
g129
tp2239
a(I214
g288
tp2240
a(I213
g114
tp2241
a(I185
g149
tp2242
a(I220
g12
tp2243
as(S'1323048449'
p2244
S'37.4236789'
p2245
S'-122.1587174'
p2246
g1110
tp2247
(lp2248
(I159
g525
tp2249
a(I150
g236
tp2250
a(I148
g163
tp2251
a(I161
g525
tp2252
as(S'1323046647'
p2253
g867
g868
g357
tp2254
(lp2255
(I130
S'-38'
p2256
tp2257
a(I133
g10
tp2258
a(I134
g19
tp2259
a(I135
g32
tp2260
a(I131
g21
tp2261
a(I136
g35
tp2262
as(S'1323041362'
p2263
S'37.4229905'
p2264
S'-122.1575615'
p2265
g493
tp2266
(lp2267
(I89
g47
tp2268
a(I90
g64
tp2269
a(I91
g182
tp2270
as(S'1323049099'
p2271
S'37.4236980'
p2272
S'-122.1587706'
p2273
g121
tp2274
(lp2275
(I199
g19
tp2276
a(I159
g26
tp2277
a(I148
g236
tp2278
a(I152
g64
tp2279
a(I150
g64
tp2280
a(I155
g37
tp2281
a(I161
g26
tp2282
as(S'1323048535'
p2283
g659
g660
g338
tp2284
(lp2285
(I162
g17
tp2286
a(I167
g10
tp2287
a(I163
g114
tp2288
a(I168
g30
tp2289
a(I170
g86
tp2290
a(I171
g127
tp2291
a(I174
g17
tp2292
a(I173
g15
tp2293
a(I175
g171
tp2294
as(S'1323047766'
p2295
S'37.4231200'
p2296
S'-122.1576693'
p2297
g815
tp2298
(lp2299
(I94
g288
tp2300
a(I102
g288
tp2301
a(I93
g10
tp2302
a(I140
g12
tp2303
a(I89
g15
tp2304
a(I143
g114
tp2305
a(I139
g171
tp2306
as(S'1323048684'
p2307
S'42.3731043'
p2308
S'-71.1136761'
p2309
g338
tp2310
(lp2311
(I189
g37
tp2312
a(I185
g116
tp2313
a(I190
g10
tp2314
a(I191
g163
tp2315
a(I192
g17
tp2316
a(I182
g86
tp2317
a(I193
g86
tp2318
a(I194
g32
tp2319
as(S'1323051472'
p2320
g297
g298
g138
tp2321
(lp2322
(I221
g21
tp2323
a(I223
g35
tp2324
a(I213
g157
tp2325
a(I226
g30
tp2326
a(I185
g37
tp2327
a(I214
g171
tp2328
a(I220
g86
tp2329
as(S'1323051012'
p2330
g481
g482
g192
tp2331
(lp2332
(I221
g37
tp2333
a(I223
g171
tp2334
a(I219
g28
tp2335
a(I213
g17
tp2336
a(I214
g32
tp2337
a(I185
g37
tp2338
a(I220
g17
tp2339
a(I226
g171
tp2340
as(S'1323049144'
p2341
S'37.4232921'
p2342
S'-122.1578119'
p2343
S'87'
p2344
tp2345
(lp2346
(I207
g163
tp2347
a(I148
g163
tp2348
a(I93
g163
tp2349
a(I100
g37
tp2350
a(I205
g86
tp2351
a(I202
g49
tp2352
as(S'1323036442'
p2353
S'57.0684560'
p2354
S'10.2782205'
p2355
S'3472'
p2356
tp2357
(lp2358
(I49
g49
tp2359
as(S'1323049204'
p2360
S'37.4228274'
p2361
S'-122.1574392'
p2362
g1149
tp2363
(lp2364
(I97
g288
tp2365
a(I89
g116
tp2366
a(I137
g261
tp2367
a(I91
g83
tp2368
a(I104
g127
tp2369
a(I90
g15
tp2370
a(I210
g15
tp2371
a(I103
g114
tp2372
as(S'1323049372'
p2373
S'42.3685450'
p2374
S'-71.1156409'
p2375
g338
tp2376
(lp2377
(I192
g28
tp2378
a(I208
g159
tp2379
a(I209
g159
tp2380
a(I204
g12
tp2381
a(I185
g236
tp2382
a(I191
g64
tp2383
a(I195
g37
tp2384
a(I194
g19
tp2385
a(I218
g174
tp2386
as(S'1323049408'
p2387
S'42.3682266'
p2388
S'-71.1157483'
p2389
g338
tp2390
(lp2391
(I211
g435
tp2392
a(I185
g17
tp2393
a(I213
g149
tp2394
a(I191
g32
tp2395
a(I212
g17
tp2396
a(I214
g21
tp2397
a(I209
g21
tp2398
as(S'1323048784'
p2399
S'37.4236699'
p2400
S'-122.1587118'
p2401
g59
tp2402
(lp2403
(I160
g37
tp2404
a(I159
g525
tp2405
a(I150
g163
tp2406
a(I148
g149
tp2407
a(I161
g182
tp2408
as(S'1323049659'
p2409
g457
g458
g338
tp2410
(lp2411
(I1
g261
tp2412
as(S'1323041755'
p2413
S'37.4229815'
p2414
S'-122.1575815'
p2415
g179
tp2416
(lp2417
(I89
g1294
tp2418
a(I91
g187
tp2419
a(I90
g12
tp2420
a(I94
g32
tp2421
a(I93
g17
tp2422
as(S'1323049645'
p2423
g397
g398
g138
tp2424
(lp2425
(I31
g37
tp2426
a(I32
g86
tp2427
as(S'1323050079'
p2428
S'42.3683702'
p2429
S'-71.1153030'
p2430
g2146
tp2431
(lp2432
(I185
g145
tp2433
a(I182
g261
tp2434
a(I192
g129
tp2435
a(I208
g236
tp2436
a(I195
g64
tp2437
a(I216
g114
tp2438
a(I237
g163
tp2439
a(I226
g149
tp2440
a(I186
g32
tp2441
a(I246
g37
tp2442
a(I251
g19
tp2443
a(I204
g19
tp2444
a(I240
g21
tp2445
a(I188
g86
tp2446
a(I194
g149
tp2447
as(S'1323040753'
p2448
g93
g58
g95
tp2449
(lp2450
(I89
g968
tp2451
a(I91
g26
tp2452
a(I90
g12
tp2453
a(I92
g30
tp2454
a(I93
g114
tp2455
as(S'1323051684'
p2456
g297
g298
g138
tp2457
(lp2458
(I223
g32
tp2459
a(I219
g116
tp2460
a(I214
g83
tp2461
a(I213
g163
tp2462
a(I191
g37
tp2463
a(I220
g28
tp2464
as(S'1323041871'
p2465
S'37.4229493'
p2466
S'-122.1575857'
p2467
g59
tp2468
(lp2469
(I91
g187
tp2470
a(I89
g110
tp2471
a(I90
g288
tp2472
a(I102
g32
tp2473
a(I94
g37
tp2474
a(I95
g32
tp2475
as(S'1323049282'
p2476
S'42.3684333'
p2477
S'-71.1155174'
p2478
g42
tp2479
(lp2480
(I192
g182
tp2481
a(I209
g129
tp2482
a(I185
g52
tp2483
a(I208
g52
tp2484
a(I195
g12
tp2485
a(I191
g17
tp2486
a(I193
g37
tp2487
a(I204
g86
tp2488
a(I192
g182
tp2489
a(I209
g129
tp2490
a(I185
g52
tp2491
a(I208
g52
tp2492
a(I195
g12
tp2493
a(I191
g17
tp2494
a(I193
g37
tp2495
a(I204
g86
tp2496
as(S'1323049266'
p2497
S'42.3684709'
p2498
S'-71.1155060'
p2499
g338
tp2500
(lp2501
(I215
g171
tp2502
a(I192
g2256
tp2503
a(I208
g236
tp2504
a(I195
g64
tp2505
a(I185
g149
tp2506
a(I216
g86
tp2507
a(I204
g129
tp2508
a(I217
g171
tp2509
a(I188
g19
tp2510
as(S'1323046642'
p2511
S'37.8780070'
p2512
S'-122.2596913'
p2513
g138
tp2514
(lp2515
(I35
g496
tp2516
a(I37
g10
tp2517
a(I53
g64
tp2518
a(I52
g163
tp2519
a(I38
g163
tp2520
a(I36
g30
tp2521
a(I39
g37
tp2522
a(I50
g37
tp2523
a(I129
g35
tp2524
a(I99
g86
tp2525
a(I42
g447
tp2526
a(I44
g159
tp2527
a(I43
g159
tp2528
a(I51
g149
tp2529
a(I46
g86
tp2530
as(S'1323050718'
p2531
S'42.3679998'
p2532
S'-71.1153821'
p2533
g42
tp2534
(lp2535
(I224
g17
tp2536
a(I223
g37
tp2537
a(I219
g62
tp2538
a(I213
g163
tp2539
a(I214
g163
tp2540
a(I220
g159
tp2541
as(S'1323049981'
p2542
S'42.3685983'
p2543
S'-71.1152491'
p2544
g106
tp2545
(lp2546
(I189
g19
tp2547
a(I236
g35
tp2548
a(I195
g261
tp2549
a(I185
g261
tp2550
a(I192
g52
tp2551
a(I182
g52
tp2552
a(I183
g114
tp2553
a(I237
g17
tp2554
a(I238
g30
tp2555
a(I216
g30
tp2556
a(I197
g30
tp2557
a(I239
g86
tp2558
a(I240
g86
tp2559
a(I241
g86
tp2560
a(I242
g86
tp2561
a(I198
g163
tp2562
a(I208
g171
tp2563
a(I188
g32
tp2564
a(I171
g19
tp2565
as(S'1323055669'
p2566
g336
g337
g338
tp2567
(lp2568
(I1
g116
tp2569
as(S'1323037039'
p2570
S'37.8780187'
p2571
S'-122.2597297'
p2572
g138
tp2573
(lp2574
(I35
g8
tp2575
a(I37
g163
tp2576
a(I52
g149
tp2577
a(I41
g32
tp2578
a(I53
g37
tp2579
a(I36
g86
tp2580
a(I54
g21
tp2581
a(I55
g35
tp2582
a(I40
g271
tp2583
a(I43
g141
tp2584
a(I42
g435
tp2585
a(I44
g12
tp2586
a(I46
g149
tp2587
a(I45
g171
tp2588
a(I51
g35
tp2589
a(I47
g171
tp2590
a(I48
g35
tp2591
as(S'1323051846'
p2592
g481
g482
g192
tp2593
(lp2594
(I219
g157
tp2595
a(I214
g10
tp2596
a(I213
g114
tp2597
a(I191
g30
tp2598
a(I185
g37
tp2599
a(I220
g12
tp2600
as(S'1323059243'
p2601
S'37.4228823'
p2602
S'-122.1574658'
p2603
S'59'
p2604
tp2605
(lp2606
(I97
g64
tp2607
a(I89
g223
tp2608
a(I91
g288
tp2609
a(I95
g10
tp2610
a(I90
g52
tp2611
a(I94
g30
tp2612
a(I299
g149
tp2613
a(I137
g32
tp2614
a(I104
g236
tp2615
as(S'1323051026'
p2616
g481
g482
g192
tp2617
(lp2618
(I219
g157
tp2619
a(I213
g15
tp2620
a(I214
g15
tp2621
a(I226
g163
tp2622
a(I185
g17
tp2623
a(I220
g32
tp2624
as(S'1323051803'
p2625
g481
g482
g192
tp2626
(lp2627
(I224
g21
tp2628
a(I221
g21
tp2629
a(I219
g127
tp2630
a(I213
g236
tp2631
a(I214
g236
tp2632
a(I185
g37
tp2633
a(I220
g30
tp2634
as(S'1323051200'
p2635
g481
g482
g192
tp2636
(lp2637
(I221
g21
tp2638
a(I224
g174
tp2639
a(I219
g28
tp2640
a(I214
g288
tp2641
a(I213
g114
tp2642
a(I185
g30
tp2643
a(I220
g30
tp2644
as(S'1323047841'
p2645
S'37.4237326'
p2646
S'-122.1587378'
p2647
S'69'
p2648
tp2649
(lp2650
(I159
g525
tp2651
a(I150
g303
tp2652
a(I161
g127
tp2653
a(I152
g288
tp2654
a(I155
g37
tp2655
a(I144
g37
tp2656
a(I148
g149
tp2657
as(S'1323050492'
p2658
S'42.3679112'
p2659
S'-71.1153800'
p2660
g338
tp2661
(lp2662
(I219
g435
tp2663
a(I213
g159
tp2664
a(I214
g12
tp2665
a(I186
g236
tp2666
a(I185
g236
tp2667
a(I226
g163
tp2668
a(I191
g149
tp2669
a(I220
g261
tp2670
as(S'1323042550'
p2671
S'37.4240770'
p2672
S'-122.1743618'
p2673
g138
tp2674
(lp2675
(I121
g525
tp2676
a(I122
g114
tp2677
a(I123
g163
tp2678
a(I124
g17
tp2679
a(I32
g86
tp2680
a(I125
g19
tp2681
a(I126
g19
tp2682
a(I127
g174
tp2683
a(I128
g125
tp2684
as(S'1323050868'
p2685
g336
g337
g338
tp2686
(lp2687
(I1
g435
tp2688
as(S'1323050225'
p2689
S'42.3683185'
p2690
S'-71.1154113'
p2691
g338
tp2692
(lp2693
(I185
g159
tp2694
a(I208
g288
tp2695
a(I192
g10
tp2696
a(I195
g86
tp2697
a(I190
g171
tp2698
a(I204
g86
tp2699
as(S'1323052027'
p2700
g481
g482
g192
tp2701
(lp2702
(I189
g174
tp2703
a(I192
g245
tp2704
a(I185
g261
tp2705
a(I190
g83
tp2706
a(I191
g163
tp2707
a(I182
g19
tp2708
a(I194
g149
tp2709
a(I204
g171
tp2710
a(I189
g174
tp2711
a(I192
g245
tp2712
a(I185
g261
tp2713
a(I190
g83
tp2714
a(I191
g163
tp2715
a(I182
g19
tp2716
a(I194
g149
tp2717
a(I204
g171
tp2718
as(S'1323049297'
p2719
S'42.3682691'
p2720
S'-71.1156113'
p2721
g42
tp2722
(lp2723
(I209
g116
tp2724
a(I211
g145
tp2725
a(I212
g288
tp2726
a(I185
g15
tp2727
a(I192
g15
tp2728
a(I195
g114
tp2729
a(I191
g30
tp2730
a(I204
g163
tp2731
a(I213
g19
tp2732
a(I214
g171
tp2733
a(I209
g116
tp2734
a(I211
g145
tp2735
a(I212
g288
tp2736
a(I185
g15
tp2737
a(I192
g15
tp2738
a(I195
g114
tp2739
a(I191
g30
tp2740
a(I204
g163
tp2741
a(I213
g19
tp2742
a(I214
g171
tp2743
a(I209
g116
tp2744
a(I211
g145
tp2745
a(I212
g288
tp2746
a(I185
g15
tp2747
a(I192
g15
tp2748
a(I195
g114
tp2749
a(I191
g30
tp2750
a(I204
g163
tp2751
a(I213
g19
tp2752
a(I214
g171
tp2753
as(S'1323050123'
p2754
S'42.3685627'
p2755
S'-71.1155893'
p2756
g1855
tp2757
(lp2758
(I215
g288
tp2759
a(I182
g303
tp2760
a(I185
g129
tp2761
a(I247
g288
tp2762
a(I186
g10
tp2763
a(I248
g52
tp2764
a(I195
g12
tp2765
a(I245
g30
tp2766
a(I257
g37
tp2767
a(I244
g37
tp2768
a(I256
g86
tp2769
a(I188
g17
tp2770
a(I171
g30
tp2771
a(I258
g86
tp2772
as(S'1323040679'
p2773
S'37.4229775'
p2774
S'-122.1575617'
p2775
g95
tp2776
(lp2777
(I89
g1294
tp2778
a(I91
g26
tp2779
a(I90
g12
tp2780
a(I100
g32
tp2781
a(I95
g30
tp2782
as(S'1323040589'
p2783
S'37.4229635'
p2784
S'-122.1575813'
p2785
g815
tp2786
(lp2787
(I89
g447
tp2788
a(I90
g10
tp2789
a(I94
g17
tp2790
a(I91
g26
tp2791
as(S'1323049387'
p2792
S'42.3683857'
p2793
S'-71.1157994'
p2794
g338
tp2795
(lp2796
(I209
g435
tp2797
a(I211
g288
tp2798
a(I212
g52
tp2799
a(I192
g12
tp2800
a(I191
g64
tp2801
a(I185
g114
tp2802
a(I195
g17
tp2803
a(I213
g32
tp2804
a(I204
g163
tp2805
a(I214
g21
tp2806
a(I171
g88
tp2807
as(S'1323048362'
p2808
S'37.4236677'
p2809
S'-122.1587113'
p2810
g59
tp2811
(lp2812
(I159
g110
tp2813
a(I150
g52
tp2814
a(I148
g64
tp2815
a(I152
g32
tp2816
a(I161
g525
tp2817
a(I159
g110
tp2818
a(I150
g52
tp2819
a(I148
g64
tp2820
a(I152
g32
tp2821
a(I161
g525
tp2822
as(S'1323048618'
p2823
S'42.3677836'
p2824
S'-71.1153135'
p2825
g192
tp2826
(lp2827
(I168
g114
tp2828
a(I167
g114
tp2829
a(I165
g171
tp2830
a(I168
g114
tp2831
a(I167
g114
tp2832
a(I165
g171
tp2833
a(I168
g114
tp2834
a(I167
g114
tp2835
a(I165
g171
tp2836
as(S'1323049959'
p2837
S'42.3686080'
p2838
S'-71.1153240'
p2839
g42
tp2840
(lp2841
(I192
g187
tp2842
a(I204
g129
tp2843
a(I208
g15
tp2844
a(I185
g236
tp2845
a(I190
g17
tp2846
a(I209
g17
tp2847
a(I182
g30
tp2848
a(I191
g149
tp2849
a(I211
g149
tp2850
a(I193
g86
tp2851
a(I194
g17
tp2852
a(I235
g21
tp2853
a(I188
g19
tp2854
a(I192
g187
tp2855
a(I204
g129
tp2856
a(I208
g15
tp2857
a(I185
g236
tp2858
a(I190
g17
tp2859
a(I209
g17
tp2860
a(I182
g30
tp2861
a(I191
g149
tp2862
a(I211
g149
tp2863
a(I193
g86
tp2864
a(I194
g17
tp2865
a(I235
g21
tp2866
a(I188
g19
tp2867
as(S'1323049726'
p2868
S'42.3679997'
p2869
S'-71.1152551'
p2870
g121
tp2871
(lp2872
(I223
g17
tp2873
a(I219
g49
tp2874
a(I214
g12
tp2875
a(I213
g64
tp2876
a(I185
g86
tp2877
a(I220
g159
tp2878
a(I226
g171
tp2879
as(S'1323047751'
p2880
S'37.4230045'
p2881
S'-122.1576523'
p2882
S'41'
p2883
tp2884
(lp2885
(I91
g127
tp2886
a(I92
g236
tp2887
a(I89
g64
tp2888
a(I140
g114
tp2889
a(I90
g163
tp2890
a(I141
g163
tp2891
a(I100
g17
tp2892
a(I142
g86
tp2893
a(I143
g17
tp2894
a(I144
g19
tp2895
a(I91
g127
tp2896
a(I92
g236
tp2897
a(I89
g64
tp2898
a(I140
g114
tp2899
a(I90
g163
tp2900
a(I141
g163
tp2901
a(I100
g17
tp2902
a(I142
g86
tp2903
a(I143
g17
tp2904
a(I144
g19
tp2905
as(S'1323041384'
p2906
S'37.4228906'
p2907
S'-122.1575688'
p2908
g493
tp2909
(lp2910
(I89
g546
tp2911
a(I91
g81
tp2912
as(S'1323074633'
p2913
S'13.6614256'
p2914
S'102.5498607'
p2915
g1539
tp2916
(lp2917
(I228
g114
tp2918
a(I229
g125
tp2919
a(I230
g86
tp2920
as(S'1323053247'
p2921
S'37.4438853'
p2922
S'-122.1635243'
p2923
S'186'
p2924
tp2925
(lp2926
(I282
g30
tp2927
a(I283
g30
tp2928
a(I284
g86
tp2929
a(I285
g19
tp2930
a(I286
g21
tp2931
a(I287
g35
tp2932
a(I288
g88
tp2933
a(I289
g86
tp2934
a(I290
g86
tp2935
a(I291
g88
tp2936
as(S'1323056388'
p2937
S'52.9292587'
p2938
S'-1.2165146'
p2939
g420
tp2940
(lp2941
(I13
g83
tp2942
a(I14
g159
tp2943
a(I16
g15
tp2944
a(I17
g114
tp2945
a(I15
g149
tp2946
a(I57
g37
tp2947
a(I34
g37
tp2948
a(I83
g35
tp2949
a(I20
g88
tp2950
a(I24
g88
tp2951
a(I19
g88
tp2952
a(I21
g174
tp2953
a(I23
g271
tp2954
a(I22
g271
tp2955
a(I63
g125
tp2956
a(I59
g125
tp2957
a(I58
g385
tp2958
a(I295
g385
tp2959
a(I11
g129
tp2960
a(I296
g385
tp2961
a(I25
g114
tp2962
a(I26
g163
tp2963
a(I27
g35
tp2964
a(I28
g174
tp2965
a(I86
g125
tp2966
a(I61
g125
tp2967
a(I297
g385
tp2968
as(S'1323050876'
p2969
g648
g649
g106
tp2970
(lp2971
(I219
g116
tp2972
a(I214
g52
tp2973
a(I213
g15
tp2974
a(I191
g32
tp2975
a(I185
g37
tp2976
a(I220
g163
tp2977
as(S'1323051917'
p2978
g481
g482
g192
tp2979
(lp2980
(I213
g288
tp2981
a(I219
g149
tp2982
as(S'1323040544'
p2983
S'37.4229497'
p2984
S'-122.1575533'
p2985
g192
tp2986
(lp2987
(I91
g187
tp2988
a(I89
g110
tp2989
a(I90
g236
tp2990
a(I92
g37
tp2991
a(I95
g171
tp2992
as(S'1323050786'
p2993
g104
g105
g106
tp2994
(lp2995
(I263
g21
tp2996
a(I260
g174
tp2997
a(I219
g47
tp2998
a(I214
g129
tp2999
a(I213
g236
tp3000
a(I185
g30
tp3001
a(I220
g15
tp3002
a(I226
g21
tp3003
as(S'1323060445'
p3004
S'37.4428914'
p3005
S'-122.1654139'
p3006
S'281'
p3007
tp3008
(lp3009
(I305
g47
tp3010
a(I306
g159
tp3011
a(I304
g37
tp3012
as(S'1323047978'
p3013
g2060
g2061
g420
tp3014
(lp3015
(I11
g245
tp3016
a(I13
g127
tp3017
a(I16
g159
tp3018
a(I15
g114
tp3019
a(I17
g17
tp3020
a(I14
g30
tp3021
a(I21
g88
tp3022
a(I56
g88
tp3023
a(I57
g88
tp3024
a(I22
g271
tp3025
a(I19
g125
tp3026
a(I34
g125
tp3027
a(I63
g125
tp3028
a(I24
g125
tp3029
a(I23
g125
tp3030
a(I20
g385
tp3031
a(I85
g433
tp3032
a(I25
g163
tp3033
a(I26
g163
tp3034
a(I27
g88
tp3035
a(I28
g271
tp3036
as(S'1323048434'
p3037
S'37.4236803'
p3038
S'-122.1587225'
p3039
g1110
tp3040
(lp3041
(I159
g81
tp3042
a(I150
g236
tp3043
a(I148
g149
tp3044
a(I161
g187
tp3045
a(I159
g81
tp3046
a(I150
g236
tp3047
a(I148
g149
tp3048
a(I161
g187
tp3049
a(I159
g81
tp3050
a(I150
g236
tp3051
a(I148
g149
tp3052
a(I161
g187
tp3053
as(S'1323040649'
p3054
S'37.4229943'
p3055
S'-122.1575527'
p3056
g192
tp3057
(lp3058
(I89
g26
tp3059
a(I91
g245
tp3060
a(I95
g37
tp3061
as(S'1323051607'
p3062
g297
g298
g138
tp3063
(lp3064
(I219
g28
tp3065
a(I214
g52
tp3066
a(I213
g12
tp3067
a(I220
g163
tp3068
as(S'1323042134'
p3069
S'37.4230082'
p3070
S'-122.1575700'
p3071
g1510
tp3072
(lp3073
(I89
g525
tp3074
a(I91
g525
tp3075
a(I90
g64
tp3076
a(I93
g149
tp3077
as(S'1323052009'
p3078
g481
g482
g192
tp3079
(lp3080
(I192
g447
tp3081
a(I185
g163
tp3082
a(I208
g17
tp3083
a(I182
g17
tp3084
a(I183
g30
tp3085
a(I190
g32
tp3086
a(I197
g37
tp3087
a(I191
g86
tp3088
a(I204
g435
tp3089
a(I209
g19
tp3090
a(I188
g171
tp3091
as(S'1323046957'
p3092
g1553
g1554
g1555
tp3093
(lp3094
(I35
g26
tp3095
a(I39
g149
tp3096
a(I54
g171
tp3097
a(I36
g21
tp3098
a(I52
g21
tp3099
a(I37
g35
tp3100
a(I53
g174
tp3101
a(I41
g35
tp3102
a(I42
g182
tp3103
a(I43
g64
tp3104
a(I44
g17
tp3105
a(I45
g21
tp3106
a(I88
g35
tp3107
as(S'1323049919'
p3108
S'42.3683761'
p3109
S'-71.1155705'
p3110
g42
tp3111
(lp3112
(I208
g288
tp3113
a(I192
g288
tp3114
a(I211
g163
tp3115
a(I190
g32
tp3116
a(I204
g32
tp3117
a(I194
g17
tp3118
a(I191
g171
tp3119
as(S'1323041811'
p3120
S'37.4229487'
p3121
S'-122.1575908'
p3122
g815
tp3123
(lp3124
(I89
g525
tp3125
a(I91
g245
tp3126
a(I90
g288
tp3127
a(I94
g30
tp3128
a(I102
g32
tp3129
a(I95
g37
tp3130
a(I93
g30
tp3131
a(I96
g19
tp3132
as(S'1323058182'
p3133
S'52.9292519'
p3134
S'-1.2166603'
p3135
g1510
tp3136
(lp3137
(I11
g447
tp3138
a(I14
g145
tp3139
a(I13
g10
tp3140
a(I15
g114
tp3141
a(I16
g17
tp3142
a(I17
g32
tp3143
a(I57
g37
tp3144
a(I83
g271
tp3145
a(I59
g271
tp3146
a(I20
g125
tp3147
a(I21
g125
tp3148
a(I56
g433
tp3149
a(I58
g433
tp3150
a(I25
g32
tp3151
a(I28
g271
tp3152
a(I27
g125
tp3153
a(I86
g385
tp3154
a(I61
g433
tp3155
a(I29
g433
tp3156
as(S'1323041961'
p3157
S'37.4229976'
p3158
S'-122.1575540'
p3159
g59
tp3160
(lp3161
(I89
g81
tp3162
a(I91
g116
tp3163
as(S'1323044843'
p3164
S'37.8780137'
p3165
S'-122.2597170'
p3166
g70
tp3167
(lp3168
(I35
g98
tp3169
a(I37
g10
tp3170
a(I39
g52
tp3171
a(I36
g236
tp3172
a(I38
g114
tp3173
a(I52
g114
tp3174
a(I87
g30
tp3175
a(I50
g32
tp3176
a(I53
g32
tp3177
a(I105
g37
tp3178
a(I42
g245
tp3179
a(I43
g127
tp3180
a(I44
g236
tp3181
a(I46
g114
tp3182
a(I45
g114
tp3183
a(I106
g35
tp3184
as(S'1323046057'
p3185
g1402
g1403
S'6'
tp3186
(lp3187
(I1
g182
tp3188
as(S'1323052652'
p3189
g1290
g1291
g939
tp3190
(lp3191
(I266
g157
tp3192
a(I270
g19
tp3193
as(S'1323042081'
p3194
S'37.4229419'
p3195
S'-122.1575494'
p3196
g2160
tp3197
(lp3198
(I89
g81
tp3199
a(I91
g116
tp3200
a(I90
g163
tp3201
a(I95
g86
tp3202
a(I93
g17
tp3203
as(S'1323062248'
p3204
S'37.8780191'
p3205
S'-122.2597045'
p3206
g70
tp3207
(lp3208
(I35
g303
tp3209
a(I37
g64
tp3210
a(I38
g17
tp3211
a(I52
g32
tp3212
a(I41
g86
tp3213
a(I36
g86
tp3214
a(I54
g19
tp3215
a(I53
g171
tp3216
a(I50
g171
tp3217
a(I87
g21
tp3218
a(I40
g271
tp3219
a(I43
g145
tp3220
a(I42
g28
tp3221
a(I44
g127
tp3222
a(I51
g21
tp3223
a(I88
g171
tp3224
a(I48
g174
tp3225
as(S'1323035252'
p3226
S'39.3834820'
p3227
S'-76.4896527'
p3228
S'3'
tp3229
(lp3230
(I1
g525
tp3231
a(I2
g35
tp3232
a(I33
g433
tp3233
a(I6
g125
tp3234
a(I4
g385
tp3235
as(S'1323050353'
p3236
S'42.3679384'
p3237
S'-71.1158454'
p3238
g42
tp3239
(lp3240
(I185
g182
tp3241
a(I209
g10
tp3242
a(I191
g12
tp3243
a(I213
g236
tp3244
a(I219
g64
tp3245
a(I211
g32
tp3246
a(I182
g32
tp3247
a(I190
g32
tp3248
a(I208
g32
tp3249
a(I214
g86
tp3250
a(I220
g19
tp3251
a(I194
g32
tp3252
as(S'1323047721'
p3253
S'37.4228626'
p3254
S'-122.1574428'
p3255
S'57'
p3256
tp3257
(lp3258
(I97
g15
tp3259
a(I96
g261
tp3260
a(I90
g288
tp3261
a(I89
g10
tp3262
a(I91
g10
tp3263
a(I137
g236
tp3264
a(I138
g37
tp3265
a(I104
g15
tp3266
as(S'1323041195'
p3267
S'37.4229802'
p3268
S'-122.1575915'
p3269
g179
tp3270
(lp3271
(I89
g223
tp3272
a(I91
g49
tp3273
a(I90
g12
tp3274
a(I94
g17
tp3275
a(I96
g149
tp3276
as(S'1323055653'
p3277
g875
g876
g877
tp3278
(lp3279
(I292
g12
tp3280
as(S'1323059381'
p3281
S'52.9292840'
p3282
S'-1.2164862'
p3283
g420
tp3284
(lp3285
(I11
g525
tp3286
a(I16
g127
tp3287
a(I13
g129
tp3288
a(I17
g15
tp3289
a(I15
g114
tp3290
a(I34
g30
tp3291
a(I57
g149
tp3292
a(I20
g174
tp3293
a(I21
g174
tp3294
a(I83
g125
tp3295
a(I56
g385
tp3296
a(I19
g433
tp3297
a(I60
g433
tp3298
a(I25
g149
tp3299
a(I26
g32
tp3300
a(I28
g35
tp3301
a(I27
g385
tp3302
a(I297
g433
tp3303
a(I61
g433
tp3304
a(I86
g433
tp3305
a(I29
g433
tp3306
as(S'1323048511'
p3307
S'37.4236629'
p3308
S'-122.1587086'
p3309
g179
tp3310
(lp3311
(I159
g525
tp3312
a(I150
g12
tp3313
a(I148
g114
tp3314
as(S'1323051269'
p3315
g481
g482
g192
tp3316
(lp3317
(I221
g37
tp3318
a(I223
g86
tp3319
a(I214
g116
tp3320
a(I219
g49
tp3321
a(I213
g17
tp3322
a(I220
g52
tp3323
a(I185
g21
tp3324
a(I261
g125
tp3325
as(S'1323051532'
p3326
g297
g298
g138
tp3327
(lp3328
(I223
g32
tp3329
a(I221
g32
tp3330
a(I213
g83
tp3331
a(I219
g127
tp3332
a(I214
g236
tp3333
a(I220
g30
tp3334
a(I185
g174
tp3335
as(S'1323053260'
p3336
g336
g337
g338
tp3337
(lp3338
(I1
g157
tp3339
as(S'1323049816'
p3340
S'42.3678046'
p3341
S'-71.1156465'
p3342
g192
tp3343
(lp3344
(I224
g271
tp3345
a(I213
g129
tp3346
a(I219
g64
tp3347
a(I214
g64
tp3348
as(S'1323048419'
p3349
S'37.4236791'
p3350
S'-122.1587221'
p3351
g952
tp3352
(lp3353
(I159
g447
tp3354
a(I150
g236
tp3355
a(I148
g17
tp3356
a(I161
g525
tp3357
a(I159
g447
tp3358
a(I150
g236
tp3359
a(I148
g17
tp3360
a(I161
g525
tp3361
as(S'1323041826'
p3362
S'37.4229548'
p3363
S'-122.1575928'
p3364
g815
tp3365
(lp3366
(I89
g81
tp3367
a(I91
g116
tp3368
a(I90
g15
tp3369
a(I94
g17
tp3370
a(I95
g86
tp3371
a(I104
g86
tp3372
as(S'1323040664'
p3373
S'37.4229631'
p3374
S'-122.1575590'
p3375
g192
tp3376
(lp3377
(I89
g8
tp3378
a(I91
g81
tp3379
a(I90
g236
tp3380
a(I95
g32
tp3381
as(S'1323051577'
p3382
g297
g298
g138
tp3383
(lp3384
(I223
g21
tp3385
a(I219
g26
tp3386
a(I214
g129
tp3387
a(I185
g52
tp3388
a(I213
g64
tp3389
a(I191
g149
tp3390
a(I220
g116
tp3391
as(S'1323051876'
p3392
g481
g482
g192
tp3393
(lp3394
(I219
g435
tp3395
a(I214
g157
tp3396
a(I213
g64
tp3397
a(I191
g30
tp3398
a(I185
g32
tp3399
a(I220
g28
tp3400
as(S'1323062844'
p3401
S'37.8780189'
p3402
S'-122.2597441'
p3403
g138
tp3404
(lp3405
(I35
g968
tp3406
a(I36
g15
tp3407
a(I37
g37
tp3408
a(I53
g86
tp3409
a(I54
g86
tp3410
a(I40
g19
tp3411
a(I41
g21
tp3412
a(I312
g125
tp3413
a(I42
g435
tp3414
a(I43
g261
tp3415
a(I44
g236
tp3416
a(I51
g30
tp3417
a(I46
g271
tp3418
a(I88
g19
tp3419
a(I107
g21
tp3420
as(S'1323040559'
p3421
S'37.4229593'
p3422
S'-122.1575881'
p3423
g815
tp3424
(lp3425
(I89
g8
tp3426
a(I91
g81
tp3427
a(I90
g236
tp3428
a(I92
g32
tp3429
a(I94
g32
tp3430
a(I96
g171
tp3431
a(I95
g86
tp3432
as(S'1323048479'
p3433
S'37.4236701'
p3434
S'-122.1587108'
p3435
g543
tp3436
(lp3437
(I159
g447
tp3438
a(I150
g15
tp3439
a(I148
g114
tp3440
a(I161
g447
tp3441
as(S'1323049251'
p3442
S'42.3683812'
p3443
S'-71.1157477'
p3444
g338
tp3445
(lp3446
(I192
g98
tp3447
a(I191
g159
tp3448
a(I209
g10
tp3449
a(I195
g52
tp3450
a(I208
g17
tp3451
a(I211
g30
tp3452
a(I204
g30
tp3453
a(I190
g86
tp3454
a(I194
g86
tp3455
as(S'1323056259'
p3456
g336
g337
g338
tp3457
(lp3458
(I1
g116
tp3459
a(I2
g385
tp3460
as(S'1323034654'
p3461
S'39.3833284'
p3462
S'-76.4895160'
p3463
S'6'
tp3464
(lp3465
(I1
g127
tp3466
a(I2
g37
tp3467
a(I3
g433
tp3468
a(I4
g271
tp3469
a(I5
g385
tp3470
a(I6
g385
tp3471
a(I7
g433
tp3472
as(S'1323063444'
p3473
S'37.4239781'
p3474
S'-122.1740778'
p3475
g138
tp3476
(lp3477
(I101
g17
tp3478
a(I310
g145
tp3479
as(S'1323042111'
p3480
S'37.4229744'
p3481
S'-122.1575595'
p3482
g179
tp3483
(lp3484
(I89
g223
tp3485
a(I91
g116
tp3486
a(I90
g12
tp3487
a(I93
g163
tp3488
as(S'1323055649'
p3489
S'37.8780147'
p3490
S'-122.2597227'
p3491
g138
tp3492
(lp3493
(I35
g187
tp3494
a(I50
g12
tp3495
a(I38
g236
tp3496
a(I53
g163
tp3497
a(I52
g32
tp3498
a(I36
g86
tp3499
a(I37
g49
tp3500
a(I132
g21
tp3501
a(I42
g110
tp3502
a(I43
g83
tp3503
a(I44
g127
tp3504
as(S'1323059178'
p3505
S'37.4229791'
p3506
S'-122.1575581'
p3507
g95
tp3508
(lp3509
(I89
g1893
tp3510
a(I90
g15
tp3511
a(I91
g110
tp3512
as(S'1323043643'
p3513
g3205
g3206
g70
tp3514
(lp3515
(I35
g8
tp3516
a(I37
g288
tp3517
a(I38
g12
tp3518
a(I36
g15
tp3519
a(I50
g163
tp3520
a(I52
g30
tp3521
a(I53
g32
tp3522
a(I54
g32
tp3523
a(I41
g37
tp3524
a(I87
g86
tp3525
a(I42
g182
tp3526
a(I43
g28
tp3527
a(I46
g17
tp3528
a(I44
g149
tp3529
a(I45
g163
tp3530
a(I88
g37
tp3531
as(S'1323051698'
p3532
g297
g298
g138
tp3533
(lp3534
(I219
g49
tp3535
a(I214
g157
tp3536
a(I213
g15
tp3537
a(I185
g15
tp3538
a(I226
g32
tp3539
a(I220
g236
tp3540
as(S'1323037043'
p3541
S'57.0770927'
p3542
S'10.2578020'
p3543
g1539
tp3544
(lp3545
(I49
g159
tp3546
as(S'1323050246'
p3547
g397
g398
g138
tp3548
(lp3549
(I31
g32
tp3550
a(I32
g171
tp3551
as(S'1323050741'
p3552
g2532
g2533
g42
tp3553
(lp3554
(I223
g271
tp3555
a(I219
g116
tp3556
a(I214
g157
tp3557
a(I213
g17
tp3558
a(I185
g30
tp3559
a(I191
g86
tp3560
a(I220
g114
tp3561
a(I226
g21
tp3562
as(S'1323051932'
p3563
g481
g482
g192
tp3564
(lp3565
(I213
g15
tp3566
a(I209
g32
tp3567
a(I192
g32
tp3568
a(I211
g163
tp3569
as(S'1323034644'
p3570
g1824
g1825
g420
tp3571
(lp3572
(I8
S'-25'
p3573
tp3574
a(I9
g83
tp3575
a(I10
g163
tp3576
as(S'1323040858'
p3577
S'37.4229903'
p3578
S'-122.1575947'
p3579
g2212
tp3580
(lp3581
(I89
g8
tp3582
a(I94
g32
tp3583
a(I100
g32
tp3584
a(I91
g81
tp3585
as(S'1323052660'
p3586
g336
g337
g338
tp3587
(lp3588
(I1
g145
tp3589
as(S'1323049771'
p3590
S'42.3679468'
p3591
S'-71.1154224'
p3592
g192
tp3593
(lp3594
(I223
g32
tp3595
a(I219
g129
tp3596
a(I213
g64
tp3597
a(I214
g114
tp3598
a(I220
g12
tp3599
a(I185
g19
tp3600
as(S'1323052107'
p3601
S'42.3682010'
p3602
S'-71.1152006'
p3603
g338
tp3604
(lp3605
(I276
g10
tp3606
a(I277
g32
tp3607
a(I176
g37
tp3608
a(I278
g19
tp3609
a(I279
g88
tp3610
a(I280
g19
tp3611
as(S'1323051902'
p3612
g481
g482
g192
tp3613
(lp3614
(I223
g88
tp3615
a(I221
g174
tp3616
a(I213
g83
tp3617
a(I219
g15
tp3618
a(I185
g32
tp3619
a(I214
g19
tp3620
a(I222
g19
tp3621
a(I220
g149
tp3622
as(S'1323051427'
p3623
g481
g482
g192
tp3624
(lp3625
(I219
g129
tp3626
a(I213
g52
tp3627
a(I214
g37
tp3628
a(I220
g30
tp3629
as(S'1323050674'
p3630
S'42.3679199'
p3631
S'-71.1155051'
p3632
g42
tp3633
(lp3634
(I221
g271
tp3635
a(I219
g525
tp3636
a(I214
g62
tp3637
a(I213
g17
tp3638
a(I185
g30
tp3639
a(I220
g15
tp3640
as(S'1323052063'
p3641
g336
g337
g338
tp3642
(lp3643
(I1
g145
tp3644
as(S'1323050907'
p3645
g481
g482
g192
tp3646
(lp3647
(I223
g88
tp3648
a(I260
g171
tp3649
a(I219
g15
tp3650
a(I214
g15
tp3651
a(I213
g163
tp3652
a(I220
g64
tp3653
as(S'1323052780'
p3654
S'52.9293277'
p3655
S'-1.2164282'
p3656
g420
tp3657
(lp3658
(I13
g62
tp3659
a(I11
g62
tp3660
a(I14
g129
tp3661
a(I16
g236
tp3662
a(I17
g17
tp3663
a(I15
g32
tp3664
a(I21
g37
tp3665
a(I57
g37
tp3666
a(I24
g86
tp3667
a(I34
g171
tp3668
a(I20
g174
tp3669
a(I19
g174
tp3670
a(I22
g174
tp3671
a(I63
g271
tp3672
a(I59
g125
tp3673
a(I23
g385
tp3674
a(I56
g433
tp3675
a(I26
g30
tp3676
a(I27
g86
tp3677
a(I25
g171
tp3678
a(I28
g171
tp3679
as(S'1323041796'
p3680
S'37.4229917'
p3681
S'-122.1575909'
p3682
g1110
tp3683
(lp3684
(I89
g1294
tp3685
a(I90
g15
tp3686
a(I94
g32
tp3687
a(I91
g182
tp3688
as(S'1323044248'
p3689
g867
g868
g357
tp3690
(lp3691
(I130
g525
tp3692
a(I133
g114
tp3693
a(I131
g35
tp3694
as(S'1323050756'
p3695
S'42.3680101'
p3696
S'-71.1153761'
p3697
g42
tp3698
(lp3699
(I221
g171
tp3700
a(I231
g174
tp3701
a(I219
g49
tp3702
a(I185
g28
tp3703
a(I214
g28
tp3704
a(I213
g10
tp3705
a(I220
g163
tp3706
as(S'1323043656'
p3707
S'39.3836167'
p3708
S'-76.4896631'
p3709
g1604
tp3710
(lp3711
(I1
g182
tp3712
a(I2
g86
tp3713
a(I7
g125
tp3714
a(I6
g385
tp3715
as(S'1323048002'
p3716
S'37.4236855'
p3717
S'-122.1587101'
p3718
g1110
tp3719
(lp3720
(I159
g98
tp3721
a(I150
g15
tp3722
a(I161
g223
tp3723
as(S'1323037175'
p3724
S'52.9292922'
p3725
S'-1.2164922'
p3726
g420
tp3727
(lp3728
(I11
g81
tp3729
a(I12
g83
tp3730
a(I13
g83
tp3731
a(I14
g288
tp3732
a(I15
g15
tp3733
a(I16
g163
tp3734
a(I17
g30
tp3735
a(I21
g32
tp3736
a(I56
g19
tp3737
a(I57
g35
tp3738
a(I19
g35
tp3739
a(I20
g35
tp3740
a(I58
g88
tp3741
a(I59
g174
tp3742
a(I60
g174
tp3743
a(I22
g174
tp3744
a(I34
g125
tp3745
a(I23
g433
tp3746
a(I26
g149
tp3747
a(I28
g37
tp3748
a(I27
g37
tp3749
a(I25
g86
tp3750
a(I61
g385
tp3751
as(S'1323048352'
p3752
S'37.4236948'
p3753
S'-122.1587164'
p3754
g1110
tp3755
(lp3756
(I159
g81
tp3757
a(I150
g127
tp3758
a(I148
g236
tp3759
a(I152
g114
tp3760
a(I161
g8
tp3761
as(S'1323061049'
p3762
S'37.8780004'
p3763
S'-122.2598117'
p3764
g138
tp3765
(lp3766
(I35
g47
tp3767
a(I37
g127
tp3768
a(I54
g236
tp3769
a(I38
g17
tp3770
a(I36
g17
tp3771
a(I41
g30
tp3772
a(I39
g32
tp3773
a(I40
g37
tp3774
a(I55
g21
tp3775
a(I98
g86
tp3776
a(I42
g245
tp3777
a(I43
g303
tp3778
a(I44
g159
tp3779
a(I46
g37
tp3780
a(I48
g32
tp3781
a(I88
g19
tp3782
as(S'1323050382'
p3783
S'52.9293071'
p3784
S'-1.2165957'
p3785
g192
tp3786
(lp3787
(I11
g245
tp3788
a(I13
g129
tp3789
a(I16
g12
tp3790
a(I15
g114
tp3791
a(I17
g163
tp3792
a(I14
g37
tp3793
a(I56
g88
tp3794
a(I57
g88
tp3795
a(I21
g174
tp3796
a(I19
g271
tp3797
a(I34
g271
tp3798
a(I24
g125
tp3799
a(I85
g385
tp3800
a(I22
g385
tp3801
a(I63
g433
tp3802
a(I26
g163
tp3803
a(I25
g163
tp3804
a(I27
g35
tp3805
a(I28
g35
tp3806
as(S'1323059843'
p3807
S'37.4230304'
p3808
S'-122.1575511'
p3809
S'71'
p3810
tp3811
(lp3812
(I97
g163
tp3813
a(I89
S'-40'
p3814
tp3815
a(I91
g52
tp3816
a(I90
g30
tp3817
as(S'1323043045'
p3818
S'37.8779817'
p3819
S'-122.2598150'
p3820
g138
tp3821
(lp3822
(I35
g968
tp3823
a(I37
g52
tp3824
a(I38
g12
tp3825
a(I39
g236
tp3826
a(I36
g236
tp3827
a(I52
g114
tp3828
a(I50
g17
tp3829
a(I54
g30
tp3830
a(I53
g149
tp3831
a(I55
g149
tp3832
a(I87
g21
tp3833
a(I129
g35
tp3834
a(I98
g88
tp3835
a(I42
g141
tp3836
a(I43
g52
tp3837
a(I44
g15
tp3838
a(I45
g163
tp3839
a(I46
g30
tp3840
a(I88
g149
tp3841
as(S'1323034774'
p3842
S'52.9293087'
p3843
S'-1.2164417'
p3844
g420
tp3845
(lp3846
(I11
g525
tp3847
a(I12
g127
tp3848
a(I13
g127
tp3849
a(I14
g288
tp3850
a(I15
g52
tp3851
a(I16
g64
tp3852
a(I17
g64
tp3853
a(I18
g21
tp3854
a(I19
g35
tp3855
a(I20
g88
tp3856
a(I21
g88
tp3857
a(I22
g271
tp3858
a(I23
g125
tp3859
a(I24
g125
tp3860
a(I25
g114
tp3861
a(I26
g30
tp3862
a(I27
g88
tp3863
a(I28
g271
tp3864
a(I29
g271
tp3865
a(I30
g125
tp3866
as(S'1323051340'
p3867
g481
g482
g192
tp3868
(lp3869
(I260
g174
tp3870
a(I219
g141
tp3871
a(I214
g28
tp3872
a(I191
g32
tp3873
a(I213
g37
tp3874
a(I185
g86
tp3875
a(I220
g17
tp3876
as(S'1323049174'
p3877
S'37.4233001'
p3878
S'-122.1573307'
p3879
g121
tp3880
(lp3881
(I140
g127
tp3882
a(I139
g288
tp3883
a(I146
g114
tp3884
a(I143
g17
tp3885
a(I92
g163
tp3886
a(I144
g35
tp3887
as(S'1323049090'
p3888
S'42.3682940'
p3889
S'-71.1156768'
p3890
g338
tp3891
(lp3892
(I200
g21
tp3893
a(I195
g157
tp3894
a(I201
g86
tp3895
a(I198
g435
tp3896
as(S'1323051964'
p3897
g481
g482
g192
tp3898
(lp3899
(I209
g28
tp3900
a(I211
g127
tp3901
a(I192
g129
tp3902
a(I185
g159
tp3903
a(I191
g15
tp3904
a(I212
g15
tp3905
a(I213
g32
tp3906
a(I214
g86
tp3907
a(I204
g32
tp3908
as(S'1323053853'
p3909
g937
g938
g939
tp3910
(lp3911
(I266
g182
tp3912
as(S'1323041350'
p3913
g1713
g1714
g138
tp3914
(lp3915
(I31
g19
tp3916
as(S'1323057429'
p3917
g875
g876
g877
tp3918
(lp3919
(I292
g32
tp3920
as(S'1323036573'
p3921
g618
g619
g420
tp3922
(lp3923
(I11
g145
tp3924
a(I12
g83
tp3925
a(I14
g83
tp3926
a(I15
g10
tp3927
a(I13
g52
tp3928
a(I17
g236
tp3929
a(I16
g17
tp3930
a(I21
g86
tp3931
a(I22
g271
tp3932
a(I34
g125
tp3933
a(I19
g125
tp3934
a(I24
g385
tp3935
a(I23
g433
tp3936
a(I26
g236
tp3937
a(I25
g114
tp3938
a(I28
g86
tp3939
a(I27
g86
tp3940
as(S'1323046179'
p3941
g2060
g2061
g420
tp3942
(lp3943
(I11
g127
tp3944
a(I16
g52
tp3945
a(I13
g15
tp3946
a(I15
g236
tp3947
a(I14
g114
tp3948
a(I17
g163
tp3949
a(I56
g32
tp3950
a(I21
g35
tp3951
a(I34
g35
tp3952
a(I19
g174
tp3953
a(I22
g271
tp3954
a(I20
g271
tp3955
a(I23
g125
tp3956
a(I57
g125
tp3957
a(I24
g125
tp3958
a(I63
g125
tp3959
a(I25
g17
tp3960
a(I26
g86
tp3961
a(I28
g35
tp3962
a(I27
g35
tp3963
as(S'1323049786'
p3964
S'42.3678304'
p3965
S'-71.1155681'
p3966
g121
tp3967
(lp3968
(I223
g21
tp3969
a(I219
g159
tp3970
a(I214
g236
tp3971
a(I213
g17
tp3972
a(I220
g15
tp3973
a(I185
g88
tp3974
as(S'1323055182'
p3975
S'52.9293394'
p3976
S'-1.2164623'
p3977
g420
tp3978
(lp3979
(I11
g182
tp3980
a(I13
g145
tp3981
a(I14
g127
tp3982
a(I16
g52
tp3983
a(I17
g64
tp3984
a(I15
g17
tp3985
a(I34
g149
tp3986
a(I57
g37
tp3987
a(I21
g21
tp3988
a(I24
g35
tp3989
a(I56
g174
tp3990
a(I63
g271
tp3991
a(I19
g271
tp3992
a(I58
g125
tp3993
a(I22
g125
tp3994
a(I26
g163
tp3995
a(I27
g19
tp3996
a(I25
g19
tp3997
a(I86
g88
tp3998
a(I28
g88
tp3999
a(I61
g271
tp4000
as(S'1323047848'
p4001
S'37.4236684'
p4002
S'-122.1587128'
p4003
g179
tp4004
(lp4005
(I160
g19
tp4006
a(I159
g47
tp4007
a(I150
g12
tp4008
a(I148
g17
tp4009
a(I161
g8
tp4010
as(S'1323054444'
p4011
S'37.4420667'
p4012
S'-122.1633546'
p4013
S'1064'
p4014
tp4015
(lp4016
(I292
g15
tp4017
as(S'1323049177'
p4018
S'42.3683745'
p4019
S'-71.1154029'
p4020
g338
tp4021
(lp4022
(I189
g64
tp4023
a(I192
g447
tp4024
a(I185
g10
tp4025
a(I195
g52
tp4026
a(I191
g17
tp4027
a(I208
g17
tp4028
a(I182
g30
tp4029
a(I190
g32
tp4030
a(I209
g86
tp4031
a(I204
g28
tp4032
a(I188
g171
tp4033
as(S'1323042577'
p4034
g618
g619
g420
tp4035
(lp4036
(I11
g435
tp4037
a(I13
g157
tp4038
a(I57
g127
tp4039
a(I14
g288
tp4040
a(I12
g52
tp4041
a(I16
g52
tp4042
a(I15
g12
tp4043
a(I22
g114
tp4044
a(I17
g32
tp4045
a(I19
g171
tp4046
a(I21
g171
tp4047
a(I24
g88
tp4048
a(I34
g174
tp4049
a(I25
g236
tp4050
a(I26
g149
tp4051
a(I28
g171
tp4052
a(I27
g171
tp4053
as(S'1323058650'
p4054
S'37.8780371'
p4055
S'-122.2597701'
p4056
g138
tp4057
(lp4058
(I35
g968
tp4059
a(I37
g129
tp4060
a(I54
g64
tp4061
a(I40
g149
tp4062
a(I50
g32
tp4063
a(I36
g37
tp4064
a(I53
g19
tp4065
a(I99
g37
tp4066
a(I43
g182
tp4067
a(I42
g303
tp4068
a(I44
g10
tp4069
a(I48
g32
tp4070
a(I88
g21
tp4071
as(S'1323041991'
p4072
S'37.4229811'
p4073
S'-122.1575532'
p4074
g1110
tp4075
(lp4076
(I89
g435
tp4077
a(I91
g968
tp4078
as(S'1323040783'
p4079
S'37.4229640'
p4080
S'-122.1575806'
p4081
g815
tp4082
(lp4083
(I91
g968
tp4084
a(I89
g525
tp4085
a(I90
g64
tp4086
a(I92
g64
tp4087
a(I94
g30
tp4088
a(I96
g86
tp4089
as(S'1323052050'
p4090
g1290
g1291
g939
tp4091
(lp4092
(I266
g1294
tp4093
a(I270
g19
tp4094
as(S'1323049058'
p4095
g336
g337
g338
tp4096
(lp4097
(I1
g127
tp4098
as(S'1323049135'
p4099
S'42.3683635'
p4100
S'-71.1157983'
p4101
g338
tp4102
(lp4103
(I195
g73
tp4104
a(I192
g127
tp4105
a(I196
g30
tp4106
a(I198
g62
tp4107
as(S'1323047844'
p4108
g2512
S'-122.2597245'
p4109
g70
tp4110
(lp4111
(I35
g496
tp4112
a(I36
g114
tp4113
a(I37
g163
tp4114
a(I54
g37
tp4115
a(I87
g19
tp4116
a(I52
g171
tp4117
a(I41
g171
tp4118
a(I98
g171
tp4119
a(I53
g21
tp4120
a(I43
g141
tp4121
a(I42
g62
tp4122
a(I44
g17
tp4123
a(I51
g21
tp4124
a(I88
g19
tp4125
as(S'1323044950'
p4126
g1713
g1714
g138
tp4127
(lp4128
(I31
g17
tp4129
a(I101
g35
tp4130
as(S'1323049044'
p4131
S'37.4236653'
p4132
S'-122.1587082'
p4133
g59
tp4134
(lp4135
(I160
g21
tp4136
a(I159
g187
tp4137
a(I150
g52
tp4138
a(I148
g32
tp4139
a(I161
g447
tp4140
a(I160
g21
tp4141
a(I159
g187
tp4142
a(I150
g52
tp4143
a(I148
g32
tp4144
a(I161
g447
tp4145
a(I160
g21
tp4146
a(I159
g187
tp4147
a(I150
g52
tp4148
a(I148
g32
tp4149
a(I161
g447
tp4150
a(I160
g21
tp4151
a(I159
g187
tp4152
a(I150
g52
tp4153
a(I148
g32
tp4154
a(I161
g447
tp4155
as(S'1323050984'
p4156
g2060
g2061
g420
tp4157
(lp4158
(I11
g303
tp4159
a(I13
g28
tp4160
a(I14
g159
tp4161
a(I16
g15
tp4162
a(I15
g64
tp4163
a(I17
g30
tp4164
a(I34
g35
tp4165
a(I56
g88
tp4166
a(I22
g88
tp4167
a(I24
g88
tp4168
a(I57
g271
tp4169
a(I19
g271
tp4170
a(I21
g385
tp4171
a(I85
g385
tp4172
a(I63
g433
tp4173
a(I25
g163
tp4174
a(I26
g17
tp4175
a(I28
g385
tp4176
a(I27
g385
tp4177
as(S'1323054084'
p4178
g1553
g1554
g1555
tp4179
(lp4180
(I35
g81
tp4181
a(I41
g32
tp4182
a(I37
g163
tp4183
a(I36
g171
tp4184
a(I42
g28
tp4185
a(I43
g52
tp4186
a(I44
g17
tp4187
as(S'1323035846'
p4188
g2354
g2355
g2356
tp4189
(lp4190
(I49
g303
tp4191
as(S'1323049546'
p4192
S'42.3679783'
p4193
S'-71.1155320'
p4194
g42
tp4195
(lp4196
(I223
g21
tp4197
a(I219
g62
tp4198
a(I214
g129
tp4199
a(I213
g236
tp4200
a(I226
g37
tp4201
a(I220
g435
tp4202
a(I191
g21
tp4203
as(S'1323050300'
p4204
S'42.3679529'
p4205
S'-71.1155758'
p4206
g42
tp4207
(lp4208
(I221
g37
tp4209
a(I223
g37
tp4210
a(I213
g303
tp4211
a(I219
g10
tp4212
a(I214
g171
tp4213
as(S'1323051622'
p4214
g297
g298
g138
tp4215
(lp4216
(I185
g236
tp4217
a(I213
g236
tp4218
a(I219
g64
tp4219
a(I191
g17
tp4220
a(I211
g32
tp4221
a(I220
g19
tp4222
as(S'1323050922'
p4223
g481
g482
g192
tp4224
(lp4225
(I223
g171
tp4226
a(I219
g28
tp4227
a(I213
g129
tp4228
a(I214
g163
tp4229
a(I220
g236
tp4230
as(S'1323043042'
p4231
S'37.4229376'
p4232
S'-122.1575225'
p4233
S'65'
p4234
tp4235
(lp4236
(I97
g35
tp4237
a(I89
g187
tp4238
a(I91
g447
tp4239
a(I90
g163
tp4240
a(I95
g30
tp4241
a(I94
g19
tp4242
a(I93
g149
tp4243
as(S'1323049434'
p4244
S'42.3680403'
p4245
S'-71.1154939'
p4246
g42
tp4247
(lp4248
(I211
g30
tp4249
a(I213
g10
tp4250
a(I211
g30
tp4251
a(I213
g10
tp4252
as(S'1323051398'
p4253
g481
g482
g192
tp4254
(lp4255
(I219
g261
tp4256
a(I214
g83
tp4257
a(I185
g114
tp4258
a(I213
g163
tp4259
a(I220
g64
tp4260
as(S'1323041242'
p4261
S'37.8780102'
p4262
S'-122.2597007'
p4263
g138
tp4264
(lp4265
(I35
g187
tp4266
a(I37
g127
tp4267
a(I36
g236
tp4268
a(I38
g64
tp4269
a(I52
g30
tp4270
a(I39
g30
tp4271
a(I53
g32
tp4272
a(I50
g86
tp4273
a(I99
g30
tp4274
a(I54
g19
tp4275
a(I41
g21
tp4276
a(I105
g88
tp4277
a(I42
g157
tp4278
a(I43
g159
tp4279
a(I44
g10
tp4280
a(I51
g32
tp4281
a(I88
g21
tp4282
as(S'1323061043'
p4283
g4012
g4013
g4014
tp4284
(lp4285
(I305
g26
tp4286
as(S'1323050458'
p4287
S'42.3679889'
p4288
S'-71.1154788'
p4289
g42
tp4290
(lp4291
(I224
g30
tp4292
a(I260
g174
tp4293
a(I219
g435
tp4294
a(I214
g52
tp4295
a(I213
g17
tp4296
a(I185
g30
tp4297
a(I220
g236
tp4298
a(I191
g19
tp4299
a(I261
g21
tp4300
as(S'1323050980'
p4301
g481
g482
g192
tp4302
(lp4303
(I223
g19
tp4304
a(I219
g261
tp4305
a(I214
g114
tp4306
a(I213
g17
tp4307
a(I191
g37
tp4308
a(I220
g149
tp4309
as(S'1323047781'
p4310
S'37.4230713'
p4311
S'-122.1577238'
p4312
g2883
tp4313
(lp4314
(I145
g37
tp4315
a(I91
g52
tp4316
a(I140
g52
tp4317
a(I92
g15
tp4318
a(I146
g114
tp4319
a(I94
g114
tp4320
a(I144
g163
tp4321
a(I142
g17
tp4322
a(I143
g30
tp4323
a(I93
g30
tp4324
a(I103
g149
tp4325
a(I89
g32
tp4326
a(I147
g37
tp4327
a(I148
g37
tp4328
a(I145
g37
tp4329
a(I91
g52
tp4330
a(I140
g52
tp4331
a(I92
g15
tp4332
a(I146
g114
tp4333
a(I94
g114
tp4334
a(I144
g163
tp4335
a(I142
g17
tp4336
a(I143
g30
tp4337
a(I93
g30
tp4338
a(I103
g149
tp4339
a(I89
g32
tp4340
a(I147
g37
tp4341
a(I148
g37
tp4342
as(S'1323044847'
p4343
g867
g868
g357
tp4344
(lp4345
(I130
g447
tp4346
a(I133
g236
tp4347
as(S'1323059259'
p4348
g336
g337
g338
tp4349
(lp4350
(I1
g145
tp4351
as(S'1323040751'
p4352
g397
g398
g138
tp4353
(lp4354
(I31
g86
tp4355
a(I101
g385
tp4356
a(I32
g88
tp4357
as(S'1323045579'
p4358
S'52.9293659'
p4359
S'-1.2165328'
p4360
g420
tp4361
(lp4362
(I11
g62
tp4363
a(I14
g159
tp4364
a(I13
g288
tp4365
a(I16
g52
tp4366
a(I17
g163
tp4367
a(I15
g30
tp4368
a(I34
g86
tp4369
a(I21
g19
tp4370
a(I56
g35
tp4371
a(I63
g88
tp4372
a(I20
g271
tp4373
a(I22
g271
tp4374
a(I19
g271
tp4375
a(I24
g125
tp4376
a(I57
g125
tp4377
a(I85
g125
tp4378
a(I25
g17
tp4379
a(I27
g19
tp4380
a(I26
g19
tp4381
a(I28
g19
tp4382
as(S'1323051638'
p4383
g297
g298
g138
tp4384
(lp4385
(I185
g10
tp4386
a(I219
g114
tp4387
a(I214
g17
tp4388
a(I213
g149
tp4389
a(I191
g149
tp4390
a(I220
g236
tp4391
as(g204
g4012
g4013
g4014
tp4392
(lp4393
(I292
g15
tp4394
as(S'1323056865'
p4395
S'37.8780226'
p4396
S'-122.2597135'
p4397
g138
tp4398
(lp4399
(I35
g98
tp4400
a(I38
g236
tp4401
a(I36
g163
tp4402
a(I39
g163
tp4403
a(I54
g37
tp4404
a(I52
g86
tp4405
a(I37
g12
tp4406
a(I43
g141
tp4407
a(I42
g145
tp4408
a(I44
g236
tp4409
a(I88
g149
tp4410
as(S'1323040768'
p4411
S'37.4229736'
p4412
S'-122.1575848'
p4413
g1110
tp4414
(lp4415
(I89
g47
tp4416
a(I90
g10
tp4417
a(I102
g149
tp4418
a(I91
g81
tp4419
as(S'1323040843'
p4420
S'37.4229604'
p4421
S'-122.1575744'
p4422
g59
tp4423
(lp4424
(I89
g187
tp4425
a(I90
g159
tp4426
a(I94
g149
tp4427
a(I102
g37
tp4428
a(I91
g47
tp4429
as(S'1323057459'
p4430
S'39.3832571'
p4431
S'-76.4893144'
p4432
S'48'
p4433
tp4434
(lp4435
(I1
g435
tp4436
a(I2
g125
tp4437
as(S'1323051831'
p4438
g481
g482
g192
tp4439
(lp4440
(I219
g303
tp4441
a(I214
g52
tp4442
a(I213
g15
tp4443
a(I185
g86
tp4444
a(I220
g163
tp4445
as(S'1323049150'
p4446
S'42.3683537'
p4447
S'-71.1156715'
p4448
g338
tp4449
(lp4450
(I192
g496
tp4451
a(I195
g83
tp4452
a(I198
g288
tp4453
a(I185
g32
tp4454
a(I187
g21
tp4455
a(I204
g37
tp4456
a(I192
g496
tp4457
a(I195
g83
tp4458
a(I198
g288
tp4459
a(I185
g32
tp4460
a(I187
g21
tp4461
a(I204
g37
tp4462
as(S'1323051094'
p4463
g481
g482
g192
tp4464
(lp4465
(I260
g88
tp4466
a(I213
g129
tp4467
a(I219
g10
tp4468
a(I214
g15
tp4469
a(I220
g15
tp4470
a(I211
g19
tp4471
as(S'1323051669'
p4472
g297
g298
g138
tp4473
(lp4474
(I219
g116
tp4475
a(I214
g157
tp4476
a(I220
g129
tp4477
a(I213
g171
tp4478
as(S'1323049781'
p4479
g3976
g3977
g420
tp4480
(lp4481
(I11
g245
tp4482
a(I13
g127
tp4483
a(I16
g12
tp4484
a(I15
g114
tp4485
a(I17
g163
tp4486
a(I14
g30
tp4487
a(I57
g88
tp4488
a(I56
g88
tp4489
a(I21
g271
tp4490
a(I34
g271
tp4491
a(I63
g125
tp4492
a(I24
g125
tp4493
a(I19
g125
tp4494
a(I22
g385
tp4495
a(I85
g385
tp4496
a(I25
g114
tp4497
a(I26
g163
tp4498
a(I27
g174
tp4499
a(I28
g271
tp4500
as(S'1323048880'
p4501
S'42.3684601'
p4502
S'-71.1155680'
p4503
g338
tp4504
(lp4505
(I195
g141
tp4506
a(I196
g159
tp4507
a(I197
g163
tp4508
a(I185
g32
tp4509
a(I198
g30
tp4510
a(I182
g21
tp4511
as(S'1323049589'
p4512
S'42.3681653'
p4513
S'-71.1153929'
p4514
g42
tp4515
(lp4516
(I219
g15
tp4517
a(I185
g64
tp4518
a(I214
g30
tp4519
a(I220
g37
tp4520
a(I213
g86
tp4521
a(I194
g86
tp4522
a(I219
g15
tp4523
a(I185
g64
tp4524
a(I214
g30
tp4525
a(I220
g37
tp4526
a(I213
g86
tp4527
a(I194
g86
tp4528
as(S'1323040574'
p4529
S'37.4229388'
p4530
S'-122.1575501'
p4531
g1110
tp4532
(lp4533
(I91
g98
tp4534
a(I89
g116
tp4535
a(I90
g236
tp4536
a(I95
g30
tp4537
as(S'1323050260'
p4538
g336
g337
g338
tp4539
(lp4540
(I1
g303
tp4541
as(S'1323037773'
p4542
g618
g619
g420
tp4543
(lp4544
(I11
g303
tp4545
a(I14
g28
tp4546
a(I13
g83
tp4547
a(I12
g129
tp4548
a(I15
g17
tp4549
a(I16
g149
tp4550
a(I17
g149
tp4551
a(I21
g171
tp4552
a(I57
g35
tp4553
a(I19
g174
tp4554
a(I34
g125
tp4555
a(I24
g125
tp4556
a(I22
g385
tp4557
a(I63
g385
tp4558
a(I59
g433
tp4559
a(I20
g433
tp4560
a(I25
g64
tp4561
a(I26
g149
tp4562
a(I27
g32
tp4563
a(I28
g171
tp4564
a(I61
g433
tp4565
as(S'1323041280'
p4566
S'37.4229405'
p4567
S'-122.1575524'
p4568
g1110
tp4569
(lp4570
(I89
g182
tp4571
a(I90
g159
tp4572
a(I91
g245
tp4573
as(S'1323062245'
p4574
S'37.4241655'
p4575
S'-122.1745804'
p4576
g138
tp4577
(lp4578
(I308
g17
tp4579
a(I309
g114
tp4580
as(S'1323050689'
p4581
S'42.3679259'
p4582
S'-71.1154349'
p4583
g42
tp4584
(lp4585
(I219
g968
tp4586
a(I214
g116
tp4587
a(I220
g12
tp4588
a(I213
g15
tp4589
a(I191
g149
tp4590
a(I185
g32
tp4591
a(I194
g86
tp4592
as(S'1323051547'
p4593
g297
g298
g138
tp4594
(lp4595
(I221
g149
tp4596
a(I223
g32
tp4597
a(I272
g21
tp4598
a(I219
g49
tp4599
a(I213
g114
tp4600
a(I214
g114
tp4601
a(I185
g17
tp4602
a(I220
g159
tp4603
as(S'1323056981'
p4604
S'52.9292619'
p4605
S'-1.2164960'
p4606
g420
tp4607
(lp4608
(I11
g447
tp4609
a(I14
g303
tp4610
a(I13
g288
tp4611
a(I16
g12
tp4612
a(I17
g236
tp4613
a(I57
g32
tp4614
a(I34
g37
tp4615
a(I15
g86
tp4616
a(I83
g21
tp4617
a(I23
g35
tp4618
a(I19
g88
tp4619
a(I24
g88
tp4620
a(I21
g174
tp4621
a(I56
g174
tp4622
a(I20
g271
tp4623
a(I22
g271
tp4624
a(I58
g271
tp4625
a(I59
g271
tp4626
a(I85
g125
tp4627
a(I63
g125
tp4628
a(I295
g385
tp4629
a(I296
g433
tp4630
a(I26
g236
tp4631
a(I25
g64
tp4632
a(I27
g35
tp4633
a(I61
g174
tp4634
a(I86
g174
tp4635
a(I28
g174
tp4636
a(I297
g433
tp4637
as(S'1323040604'
p4638
S'37.4229723'
p4639
S'-122.1575765'
p4640
g815
tp4641
(lp4642
(I89
g1294
tp4643
a(I91
g26
tp4644
a(I90
g129
tp4645
a(I94
g30
tp4646
a(I92
g37
tp4647
a(I93
g19
tp4648
as(S'1323060448'
p4649
S'37.4230090'
p4650
S'-122.1575635'
p4651
S'67'
p4652
tp4653
(lp4654
(I89
g8
tp4655
a(I90
g37
tp4656
a(I104
g149
tp4657
a(I94
g171
tp4658
as(g3547
S'37.8780676'
p4659
S'-122.2597565'
p4660
g70
tp4661
(lp4662
(I35
g245
tp4663
a(I37
g10
tp4664
a(I41
g30
tp4665
a(I50
g30
tp4666
a(I54
g19
tp4667
a(I52
g19
tp4668
a(I40
g35
tp4669
a(I98
g86
tp4670
a(I87
g174
tp4671
a(I42
g81
tp4672
a(I43
g129
tp4673
a(I44
g163
tp4674
a(I51
g19
tp4675
a(I88
g86
tp4676
as(S'1323050424'
p4677
S'42.3678301'
p4678
S'-71.1156280'
p4679
g42
tp4680
(lp4681
(I223
g271
tp4682
a(I260
g21
tp4683
a(I219
g182
tp4684
a(I214
g157
tp4685
a(I185
g114
tp4686
a(I213
g17
tp4687
a(I226
g30
tp4688
a(I220
g83
tp4689
a(I186
g21
tp4690
as(S'1323048662'
p4691
g2308
g2309
g338
tp4692
(lp4693
(I180
g21
tp4694
a(I181
g129
tp4695
a(I182
g114
tp4696
a(I183
g17
tp4697
a(I184
g30
tp4698
a(I185
g37
tp4699
a(I186
g37
tp4700
a(I187
g19
tp4701
a(I188
g86
tp4702
as(S'1323058782'
p4703
S'52.9292204'
p4704
S'-1.2165280'
p4705
g420
tp4706
(lp4707
(I11
g187
tp4708
a(I13
g129
tp4709
a(I17
g15
tp4710
a(I15
g114
tp4711
a(I16
g163
tp4712
a(I57
g149
tp4713
a(I20
g174
tp4714
a(I83
g125
tp4715
a(I21
g385
tp4716
a(I56
g385
tp4717
a(I60
g433
tp4718
a(I19
g433
tp4719
a(I298
g433
tp4720
a(I25
g149
tp4721
a(I26
g32
tp4722
a(I28
g125
tp4723
a(I27
g385
tp4724
a(I29
g433
tp4725
a(I86
g433
tp4726
a(I61
g433
tp4727
a(I30
g433
tp4728
as(S'1323049236'
p4729
S'42.3683649'
p4730
S'-71.1157581'
p4731
g338
tp4732
(lp4733
(I192
g110
tp4734
a(I208
g64
tp4735
a(I195
g30
tp4736
a(I185
g32
tp4737
a(I209
g19
tp4738
a(I204
g149
tp4739
a(I192
g110
tp4740
a(I208
g64
tp4741
a(I195
g30
tp4742
a(I185
g32
tp4743
a(I209
g19
tp4744
a(I204
g149
tp4745
as(S'1323051743'
p4746
g481
g482
g192
tp4747
(lp4748
(I213
g288
tp4749
a(I214
g37
tp4750
a(I220
g32
tp4751
as(S'1323051130'
p4752
g481
g482
g192
tp4753
(lp4754
(I223
g86
tp4755
a(I219
g159
tp4756
a(I213
g288
tp4757
a(I214
g15
tp4758
a(I185
g17
tp4759
a(I220
g114
tp4760
a(I222
g19
tp4761
a(I226
g21
tp4762
as(S'1323041215'
p4763
S'37.4229378'
p4764
S'-122.1575721'
p4765
g106
tp4766
(lp4767
(I89
g26
tp4768
a(I91
g81
tp4769
a(I90
g127
tp4770
a(I94
g17
tp4771
a(I92
g19
tp4772
a(I103
g171
tp4773
as(S'1323051441'
p4774
g397
g398
g138
tp4775
(lp4776
(I31
g32
tp4777
a(I32
g21
tp4778
as(S'1323041650'
p4779
S'37.4229616'
p4780
S'-122.1575845'
p4781
g192
tp4782
(lp4783
(I89
g110
tp4784
a(I90
g30
tp4785
a(I91
g26
tp4786
a(I92
g19
tp4787
as(S'1323049646'
p4788
S'37.4229735'
p4789
S'-122.1575462'
p4790
S'68'
p4791
tp4792
(lp4793
(I97
g37
tp4794
a(I89
g1463
tp4795
a(I91
g81
tp4796
a(I90
g15
tp4797
a(I94
g149
tp4798
a(I96
g37
tp4799
a(I102
g86
tp4800
as(S'1323043047'
p4801
g2354
g2355
g2356
tp4802
(lp4803
(I130
g129
tp4804
as(S'1323041665'
p4805
S'37.4229518'
p4806
S'-122.1575489'
p4807
g554
tp4808
(lp4809
(I89
g8
tp4810
a(I91
g525
tp4811
a(I90
g12
tp4812
a(I95
g163
tp4813
as(S'1323055050'
p4814
g4012
g4013
g4014
tp4815
(lp4816
(I292
g10
tp4817
as(S'1323041841'
p4818
S'37.4229599'
p4819
S'-122.1575582'
p4820
g179
tp4821
(lp4822
(I89
g116
tp4823
a(I91
g435
tp4824
a(I90
g15
tp4825
a(I104
g37
tp4826
a(I93
g86
tp4827
as(S'1323062261'
p4828
g336
g337
g338
tp4829
(lp4830
(I1
g62
tp4831
as(S'1323050846'
p4832
g397
g398
g138
tp4833
(lp4834
(I31
g86
tp4835
a(I32
g86
tp4836
as(S'1323051245'
p4837
g481
g482
g192
tp4838
(lp4839
(I219
g129
tp4840
a(I214
g236
tp4841
a(I213
g163
tp4842
a(I220
g12
tp4843
a(I191
g19
tp4844
as(S'1323041429'
p4845
S'37.4229769'
p4846
S'-122.1575621'
p4847
g95
tp4848
(lp4849
(I89
g1463
tp4850
a(I91
g303
tp4851
a(I90
g159
tp4852
a(I104
g86
tp4853
as(S'1323038242'
p4854
S'37.8754133'
p4855
S'-122.2603034'
p4856
g138
tp4857
(lp4858
(I64
g28
tp4859
a(I65
g127
tp4860
a(I66
g129
tp4861
a(I67
g288
tp4862
a(I68
g288
tp4863
a(I69
g288
tp4864
a(I70
g15
tp4865
a(I71
g64
tp4866
a(I72
g114
tp4867
a(I73
g17
tp4868
a(I74
g30
tp4869
a(I75
g30
tp4870
a(I76
g145
tp4871
a(I77
g28
tp4872
a(I78
g28
tp4873
a(I79
g62
tp4874
a(I80
g127
tp4875
a(I81
g236
tp4876
a(I82
g114
tp4877
as(S'1323050308'
p4878
g3237
S'-71.1156371'
p4879
g42
tp4880
(lp4881
(I223
g37
tp4882
a(I221
g37
tp4883
a(I259
g19
tp4884
a(I213
g127
tp4885
a(I219
g114
tp4886
a(I220
g30
tp4887
a(I185
g171
tp4888
as(S'1323049741'
p4889
S'42.3678920'
p4890
S'-71.1153797'
p4891
g192
tp4892
(lp4893
(I223
g149
tp4894
a(I221
g149
tp4895
a(I231
g171
tp4896
a(I219
g81
tp4897
a(I214
g83
tp4898
a(I185
g64
tp4899
a(I213
g114
tp4900
a(I220
g159
tp4901
a(I191
g21
tp4902
as(g687
S'42.3681739'
p4903
S'-71.1153552'
p4904
g338
tp4905
(lp4906
(I209
g157
tp4907
a(I211
g129
tp4908
a(I185
g129
tp4909
a(I208
g288
tp4910
a(I192
g64
tp4911
a(I191
g114
tp4912
a(I226
g17
tp4913
a(I190
g30
tp4914
as(S'1323049042'
p4915
g397
g398
g138
tp4916
(lp4917
(I31
g32
tp4918
a(I101
g88
tp4919
a(I32
g19
tp4920
as(S'1323049472'
p4921
S'42.3680686'
p4922
S'-71.1158518'
p4923
g121
tp4924
(lp4925
(I221
g88
tp4926
a(I213
g435
tp4927
a(I219
g129
tp4928
a(I211
g17
tp4929
a(I214
g17
tp4930
a(I222
g17
tp4931
a(I220
g149
tp4932
as(g3807
S'37.4424788'
p4933
S'-122.1651237'
p4934
g3007
tp4935
(lp4936
(I301
g86
tp4937
a(I302
g19
tp4938
a(I303
g35
tp4939
a(I304
g88
tp4940
as(S'1323048464'
p4941
S'37.4237004'
p4942
S'-122.1587238'
p4943
g59
tp4944
(lp4945
(I159
g525
tp4946
a(I150
g236
tp4947
a(I148
g64
tp4948
a(I152
g30
tp4949
a(I161
g187
tp4950
as(S'1323048542'
p4951
S'37.4236790'
p4952
S'-122.1587199'
p4953
g1110
tp4954
(lp4955
(I159
g81
tp4956
a(I150
g129
tp4957
a(I148
g64
tp4958
a(I161
g525
tp4959
as(S'1323048604'
p4960
g2824
g2825
g192
tp4961
(lp4962
(I162
g86
tp4963
a(I165
g288
tp4964
a(I167
g52
tp4965
a(I163
g236
tp4966
a(I169
g236
tp4967
a(I177
g236
tp4968
a(I168
g64
tp4969
a(I166
g64
tp4970
a(I164
g30
tp4971
a(I178
g149
tp4972
a(I170
g32
tp4973
a(I175
g37
tp4974
a(I171
g236
tp4975
a(I179
g171
tp4976
as(S'1323042126'
p4977
S'37.4228957'
p4978
S'-122.1575507'
p4979
S'22'
p4980
tp4981
(lp4982
(I89
g223
tp4983
a(I91
g525
tp4984
a(I90
g236
tp4985
a(I93
g30
tp4986
a(I95
g19
tp4987
as(S'1323041916'
p4988
S'37.4229826'
p4989
S'-122.1575329'
p4990
g4791
tp4991
(lp4992
(I97
g21
tp4993
a(I89
g8
tp4994
a(I91
g182
tp4995
a(I94
g163
tp4996
a(I90
g17
tp4997
a(I96
g86
tp4998
as(S'1323050552'
p4999
S'42.3679068'
p5000
S'-71.1154516'
p5001
g338
tp5002
(lp5003
(I223
g30
tp5004
a(I221
g30
tp5005
a(I231
g88
tp5006
a(I219
g145
tp5007
a(I214
g288
tp5008
a(I213
g64
tp5009
a(I185
g17
tp5010
a(I220
g288
tp5011
as(S'1323051592'
p5012
g297
g298
g138
tp5013
(lp5014
(I224
g17
tp5015
a(I221
g37
tp5016
a(I223
g37
tp5017
a(I219
g83
tp5018
a(I213
g288
tp5019
a(I214
g288
tp5020
a(I185
g17
tp5021
a(I220
g114
tp5022
a(I226
g19
tp5023
a(I191
g171
tp5024
as(S'1323052991'
p5025
S'42.3679645'
p5026
S'-71.1153881'
p5027
g338
tp5028
(lp5029
(I162
g30
tp5030
a(I167
g157
tp5031
a(I163
g127
tp5032
a(I168
g52
tp5033
a(I166
g236
tp5034
a(I164
g163
tp5035
a(I169
g30
tp5036
a(I171
g10
tp5037
as(S'1323040619'
p5038
S'37.4229850'
p5039
S'-122.1575282'
p5040
g4791
tp5041
(lp5042
(I97
g37
tp5043
a(I89
g1294
tp5044
a(I91
g110
tp5045
a(I90
g12
tp5046
a(I94
g64
tp5047
a(I95
g30
tp5048
as(S'1323044245'
p5049
S'37.8777724'
p5050
S'-122.2597406'
p5051
g138
tp5052
(lp5053
(I35
g8
tp5054
a(I37
g288
tp5055
a(I38
g52
tp5056
a(I36
g163
tp5057
a(I39
g163
tp5058
a(I52
g17
tp5059
a(I54
g37
tp5060
a(I41
g19
tp5061
a(I53
g21
tp5062
a(I132
g35
tp5063
a(I65
g35
tp5064
a(I105
g86
tp5065
a(I42
g245
tp5066
a(I43
g129
tp5067
a(I44
g52
tp5068
a(I46
g114
tp5069
a(I45
g17
tp5070
a(I88
g32
tp5071
as(S'1323049419'
p5072
S'42.3681200'
p5073
S'-71.1155920'
p5074
g338
tp5075
(lp5076
(I211
g28
tp5077
a(I213
g12
tp5078
a(I209
g236
tp5079
a(I192
g163
tp5080
a(I212
g17
tp5081
as(S'1323056678'
p5082
g442
g443
g121
tp5083
(lp5084
(I108
g163
tp5085
a(I109
g47
tp5086
a(I111
g62
tp5087
a(I110
g10
tp5088
a(I112
g10
tp5089
a(I114
g52
tp5090
a(I118
g30
tp5091
a(I120
g37
tp5092
a(I119
g149
tp5093
a(I117
g21
tp5094
a(I116
g37
tp5095
as(S'1323049836'
p5096
S'42.3678204'
p5097
S'-71.1153752'
p5098
g121
tp5099
(lp5100
(I221
g163
tp5101
a(I223
g17
tp5102
a(I232
g88
tp5103
a(I219
g303
tp5104
a(I214
g127
tp5105
a(I185
g30
tp5106
a(I220
g114
tp5107
a(I226
g171
tp5108
a(I233
g88
tp5109
a(I213
g174
tp5110
as(S'1323057445'
p5111
S'37.8780443'
p5112
S'-122.2597352'
p5113
g138
tp5114
(lp5115
(I35
g110
tp5116
a(I37
g12
tp5117
a(I54
g17
tp5118
a(I36
g30
tp5119
a(I39
g30
tp5120
a(I41
g17
tp5121
a(I52
g19
tp5122
a(I40
g19
tp5123
a(I42
g182
tp5124
a(I43
g303
tp5125
a(I44
g12
tp5126
a(I88
g163
tp5127
a(I48
g19
tp5128
as(S'1323051329'
p5129
g481
g482
g192
tp5130
(lp5131
(I219
g28
tp5132
a(I214
g15
tp5133
a(I185
g30
tp5134
a(I213
g149
tp5135
a(I191
g37
tp5136
a(I220
g149
tp5137
as(S'1323059981'
p5138
S'52.9293160'
p5139
S'-1.2164450'
p5140
g138
tp5141
(lp5142
(I11
g245
tp5143
a(I13
g157
tp5144
a(I14
g10
tp5145
a(I17
g64
tp5146
a(I57
g163
tp5147
a(I15
g163
tp5148
a(I34
g149
tp5149
a(I20
g171
tp5150
a(I22
g171
tp5151
a(I19
g35
tp5152
a(I63
g174
tp5153
a(I23
g125
tp5154
a(I24
g125
tp5155
a(I58
g433
tp5156
a(I60
g433
tp5157
a(I26
g52
tp5158
a(I25
g64
tp5159
a(I27
g114
tp5160
a(I61
g385
tp5161
as(S'1323042051'
p5162
S'37.4229058'
p5163
S'-122.1575661'
p5164
g1110
tp5165
(lp5166
(I91
g187
tp5167
a(I89
g245
tp5168
a(I90
g10
tp5169
a(I95
g37
tp5170
a(I102
g86
tp5171
a(I93
g32
tp5172
as(S'1323047855'
p5173
g3976
g3977
g420
tp5174
(lp5175
(I11
g245
tp5176
a(I13
g127
tp5177
a(I14
g288
tp5178
a(I16
g288
tp5179
a(I17
g64
tp5180
a(I15
g64
tp5181
a(I56
g88
tp5182
a(I21
g174
tp5183
a(I57
g174
tp5184
a(I34
g271
tp5185
a(I63
g125
tp5186
a(I24
g125
tp5187
a(I19
g125
tp5188
a(I23
g125
tp5189
a(I20
g385
tp5190
a(I85
g433
tp5191
a(I22
g433
tp5192
a(I26
g163
tp5193
a(I25
g17
tp5194
a(I28
g174
tp5195
a(I27
g174
tp5196
as(S'1323040813'
p5197
g908
S'-122.1575574'
p5198
g1855
tp5199
(lp5200
(I89
g546
tp5201
a(I90
g52
tp5202
a(I92
g30
tp5203
a(I91
g447
tp5204
as(S'1323042188'
p5205
g442
g443
g121
tp5206
(lp5207
(I108
g35
tp5208
a(I111
g145
tp5209
a(I109
g62
tp5210
a(I110
g127
tp5211
a(I114
g10
tp5212
a(I112
g12
tp5213
a(I118
g37
tp5214
a(I113
g86
tp5215
a(I120
g86
tp5216
a(I119
g37
tp5217
a(I116
g236
tp5218
as(S'1323053250'
p5219
g1147
g1148
g1149
tp5220
(lp5221
(I62
g62
tp5222
as(S'1323044856'
p5223
S'39.3834911'
p5224
S'-76.4896252'
p5225
S'6'
tp5226
(lp5227
(I1
g141
tp5228
a(I7
g125
tp5229
as(S'1323058059'
p5230
g457
g458
g338
tp5231
(lp5232
(I1
g145
tp5233
a(I2
g385
tp5234
as(S'1323050522'
p5235
g1610
g1611
g42
tp5236
(lp5237
(I221
g37
tp5238
a(I223
g37
tp5239
a(I220
g435
tp5240
a(I219
g28
tp5241
a(I214
g129
tp5242
a(I213
g12
tp5243
a(I186
g149
tp5244
a(I185
g32
tp5245
a(I191
g86
tp5246
a(I227
g19
tp5247
as(S'1323041075'
p5248
S'37.4229457'
p5249
S'-122.1575705'
p5250
S'26'
p5251
tp5252
(lp5253
(I89
g1294
tp5254
a(I91
g525
tp5255
a(I90
g52
tp5256
a(I93
g171
tp5257
a(I103
g32
tp5258
as(S'1323040176'
p5259
g3725
g3726
g420
tp5260
(lp5261
(I11
g261
tp5262
a(I14
g159
tp5263
a(I12
g288
tp5264
a(I13
g10
tp5265
a(I15
g15
tp5266
a(I57
g236
tp5267
a(I17
g64
tp5268
a(I16
g114
tp5269
a(I21
g35
tp5270
a(I56
g35
tp5271
a(I24
g88
tp5272
a(I19
g125
tp5273
a(I20
g385
tp5274
a(I63
g385
tp5275
a(I34
g385
tp5276
a(I83
g385
tp5277
a(I22
g385
tp5278
a(I26
g32
tp5279
a(I25
g86
tp5280
a(I28
g19
tp5281
a(I27
g35
tp5282
as(S'1323040723'
p5283
S'37.4229738'
p5284
S'-122.1575954'
p5285
g754
tp5286
(lp5287
(I89
g525
tp5288
a(I91
g525
tp5289
a(I94
g149
tp5290
a(I95
g149
tp5291
a(I92
g32
tp5292
a(I93
g32
tp5293
as(S'1323051764'
p5294
g481
g482
g192
tp5295
(lp5296
(I224
g37
tp5297
a(I221
g171
tp5298
a(I223
g21
tp5299
a(I219
g127
tp5300
a(I213
g10
tp5301
a(I185
g30
tp5302
a(I186
g149
tp5303
a(I214
g32
tp5304
a(I220
g114
tp5305
a(I226
g171
tp5306
as(S'1323054460'
p5307
g336
g337
g338
tp5308
(lp5309
(I1
g141
tp5310
as(S'1323048337'
p5311
S'37.4236891'
p5312
S'-122.1587165'
p5313
g192
tp5314
(lp5315
(I160
g19
tp5316
a(I159
g73
tp5317
a(I150
g114
tp5318
a(I152
g17
tp5319
a(I148
g17
tp5320
a(I161
g968
tp5321
a(I160
g19
tp5322
a(I159
g73
tp5323
a(I150
g114
tp5324
a(I152
g17
tp5325
a(I148
g17
tp5326
a(I161
g968
tp5327
as(S'1323053383'
p5328
g1749
g1750
g420
tp5329
(lp5330
(I11
g435
tp5331
a(I13
g49
tp5332
a(I14
g127
tp5333
a(I16
g10
tp5334
a(I15
g17
tp5335
a(I34
g30
tp5336
a(I57
g32
tp5337
a(I21
g37
tp5338
a(I17
g171
tp5339
a(I19
g35
tp5340
a(I24
g35
tp5341
a(I56
g174
tp5342
a(I20
g174
tp5343
a(I63
g271
tp5344
a(I58
g271
tp5345
a(I22
g271
tp5346
a(I59
g125
tp5347
a(I25
g17
tp5348
a(I27
g32
tp5349
a(I28
g37
tp5350
a(I26
g21
tp5351
a(I61
g271
tp5352
as(S'1323049517'
p5353
S'42.3679409'
p5354
S'-71.1156654'
p5355
g42
tp5356
(lp5357
(I219
g129
tp5358
a(I214
g129
tp5359
a(I213
g236
tp5360
a(I220
g12
tp5361
as(S'1323041060'
p5362
S'37.4230031'
p5363
S'-122.1576045'
p5364
g754
tp5365
(lp5366
(I89
g110
tp5367
a(I91
g182
tp5368
a(I94
g30
tp5369
a(I96
g37
tp5370
as(S'1323050802'
p5371
g104
g105
g106
tp5372
(lp5373
(I223
g114
tp5374
a(I221
g163
tp5375
a(I264
g88
tp5376
a(I265
g174
tp5377
a(I259
g86
tp5378
a(I219
g303
tp5379
a(I214
g28
tp5380
a(I213
g114
tp5381
a(I191
g37
tp5382
a(I220
g28
tp5383
a(I186
g171
tp5384
as(S'1323046044'
p5385
S'37.8780447'
p5386
S'-122.2597100'
p5387
g70
tp5388
(lp5389
(I35
g8
tp5390
a(I37
g288
tp5391
a(I38
g12
tp5392
a(I36
g236
tp5393
a(I39
g64
tp5394
a(I50
g114
tp5395
a(I52
g30
tp5396
a(I87
g149
tp5397
a(I41
g86
tp5398
a(I54
g19
tp5399
a(I99
g19
tp5400
a(I42
g182
tp5401
a(I43
g159
tp5402
a(I44
g114
tp5403
a(I46
g30
tp5404
a(I45
g30
tp5405
a(I88
g35
tp5406
as(S'1323061648'
p5407
S'37.3524981'
p5408
S'-121.8645023'
p5409
g5
tp5410
(lp5411
(I305
g98
tp5412
as(S'1323047826'
p5413
g1978
g1979
g939
tp5414
(lp5415
(I150
g81
tp5416
a(I154
g159
tp5417
a(I152
g52
tp5418
a(I148
g12
tp5419
a(I155
g163
tp5420
a(I93
g17
tp5421
a(I156
g149
tp5422
a(I157
g86
tp5423
a(I158
g114
tp5424
a(I159
g64
tp5425
a(I150
g81
tp5426
a(I154
g159
tp5427
a(I152
g52
tp5428
a(I148
g12
tp5429
a(I155
g163
tp5430
a(I93
g17
tp5431
a(I156
g149
tp5432
a(I157
g86
tp5433
a(I158
g114
tp5434
a(I159
g64
tp5435
a(I150
g81
tp5436
a(I154
g159
tp5437
a(I152
g52
tp5438
a(I148
g12
tp5439
a(I155
g163
tp5440
a(I93
g17
tp5441
a(I156
g149
tp5442
a(I157
g86
tp5443
a(I158
g114
tp5444
a(I159
g64
tp5445
as(S'1323040499'
p5446
g3268
S'-122.1575591'
p5447
g95
tp5448
(lp5449
(I89
g447
tp5450
a(I91
g110
tp5451
a(I90
g30
tp5452
a(I93
g19
tp5453
as(S'1323052648'
p5454
S'37.4285602'
p5455
S'-122.1661734'
p5456
S'1198'
p5457
tp5458
(lp5459
(I281
g21
tp5460
as(S'1323051041'
p5461
g481
g482
g192
tp5462
(lp5463
(I224
g174
tp5464
a(I219
g145
tp5465
a(I213
g10
tp5466
a(I214
g236
tp5467
a(I185
g163
tp5468
a(I220
g17
tp5469
as(S'1323041725'
p5470
S'37.4229975'
p5471
S'-122.1575924'
p5472
g1110
tp5473
(lp5474
(I89
g1294
tp5475
a(I90
g12
tp5476
a(I94
g37
tp5477
a(I91
g141
tp5478
as(S'1323051215'
p5479
g481
g482
g192
tp5480
(lp5481
(I223
g37
tp5482
a(I219
g435
tp5483
a(I214
g288
tp5484
a(I185
g17
tp5485
a(I213
g149
tp5486
a(I191
g32
tp5487
a(I220
g236
tp5488
as(S'1323050582'
p5489
S'42.3679139'
p5490
S'-71.1154834'
p5491
g42
tp5492
(lp5493
(I221
g30
tp5494
a(I223
g30
tp5495
a(I231
g37
tp5496
a(I262
g21
tp5497
a(I260
g171
tp5498
a(I259
g174
tp5499
a(I219
g245
tp5500
a(I213
g288
tp5501
a(I214
g288
tp5502
a(I191
g30
tp5503
a(I220
g10
tp5504
as(S'1323051051'
p5505
g481
g482
g192
tp5506
(lp5507
(I223
g125
tp5508
a(I219
g64
tp5509
a(I214
g163
tp5510
a(I213
g30
tp5511
a(I220
g159
tp5512
as(S'1323051066'
p5513
g481
g482
g192
tp5514
(lp5515
(I221
g88
tp5516
a(I224
g125
tp5517
a(I219
g83
tp5518
a(I213
g159
tp5519
a(I214
g15
tp5520
a(I220
g30
tp5521
as(S'1323051448'
p5522
S'37.7901134'
p5523
S'-122.2921439'
p5524
S'2004'
p5525
tp5526
(lp5527
(I35
g968
tp5528
a(I37
g129
tp5529
a(I36
g32
tp5530
a(I87
g37
tp5531
a(I40
g19
tp5532
a(I98
g37
tp5533
a(I42
g81
tp5534
a(I43
g28
tp5535
a(I44
g15
tp5536
a(I48
g86
tp5537
as(S'1323051579'
p5538
S'52.9293089'
p5539
S'-1.2164615'
p5540
g420
tp5541
(lp5542
(I11
g116
tp5543
a(I13
g10
tp5544
a(I14
g15
tp5545
a(I15
g236
tp5546
a(I16
g64
tp5547
a(I57
g37
tp5548
a(I17
g86
tp5549
a(I19
g35
tp5550
a(I56
g88
tp5551
a(I22
g174
tp5552
a(I21
g174
tp5553
a(I20
g271
tp5554
a(I34
g125
tp5555
a(I63
g125
tp5556
a(I24
g433
tp5557
a(I27
g35
tp5558
a(I28
g174
tp5559
a(I26
g174
tp5560
a(I25
g174
tp5561
as(S'1323049129'
p5562
S'37.4235153'
p5563
S'-122.1584749'
p5564
S'54'
p5565
tp5566
(lp5567
(I145
g21
tp5568
a(I148
g52
tp5569
a(I150
g12
tp5570
a(I205
g19
tp5571
a(I144
g19
tp5572
a(I206
g149
tp5573
as(S'1323062845'
p5574
g3474
g3475
g138
tp5575
(lp5576
(I101
g12
tp5577
a(I310
g288
tp5578
a(I311
g86
tp5579
as(S'1323041459'
p5580
S'37.4229918'
p5581
S'-122.1576025'
p5582
g754
tp5583
(lp5584
(I89
g546
tp5585
a(I91
g145
tp5586
a(I90
g64
tp5587
a(I102
g37
tp5588
a(I96
g86
tp5589
as(S'1323049881'
p5590
S'42.3680965'
p5591
S'-71.1156990'
p5592
g338
tp5593
(lp5594
(I211
g159
tp5595
a(I219
g64
tp5596
a(I185
g114
tp5597
a(I213
g163
tp5598
a(I212
g37
tp5599
a(I214
g88
tp5600
a(I194
g19
tp5601
as(S'1323059848'
p5602
S'37.8780050'
p5603
S'-122.2598172'
p5604
g138
tp5605
(lp5606
(I35
g968
tp5607
a(I37
g129
tp5608
a(I54
g64
tp5609
a(I41
g163
tp5610
a(I50
g30
tp5611
a(I39
g30
tp5612
a(I38
g30
tp5613
a(I55
g149
tp5614
a(I98
g32
tp5615
a(I36
g21
tp5616
a(I42
g245
tp5617
a(I43
g81
tp5618
a(I44
g288
tp5619
a(I46
g86
tp5620
a(I88
g236
tp5621
as(S'1323049162'
p5622
S'42.3683666'
p5623
S'-71.1155022'
p5624
g338
tp5625
(lp5626
(I192
g26
tp5627
a(I195
g83
tp5628
a(I208
g17
tp5629
a(I209
g30
tp5630
a(I204
g15
tp5631
a(I183
g171
tp5632
as(S'1323055070'
p5633
S'37.8780184'
p5634
S'-122.2597181'
p5635
g70
tp5636
(lp5637
(I35
g47
tp5638
a(I37
g49
tp5639
a(I50
g236
tp5640
a(I38
g114
tp5641
a(I53
g30
tp5642
a(I87
g149
tp5643
a(I36
g149
tp5644
a(I54
g149
tp5645
a(I52
g37
tp5646
a(I42
g110
tp5647
a(I43
g157
tp5648
a(I44
g129
tp5649
a(I46
g30
tp5650
a(I45
g10
tp5651
as(S'1323051384'
p5652
g481
g482
g192
tp5653
(lp5654
(I223
g32
tp5655
a(I221
g32
tp5656
a(I224
g19
tp5657
a(I214
g83
tp5658
a(I219
g159
tp5659
a(I213
g114
tp5660
a(I220
g10
tp5661
a(I261
g174
tp5662
as(S'1323043228'
p5663
g2060
g2061
g420
tp5664
(lp5665
(I11
g303
tp5666
a(I13
g435
tp5667
a(I14
g28
tp5668
a(I15
g12
tp5669
a(I16
g15
tp5670
a(I17
g114
tp5671
a(I57
g37
tp5672
a(I21
g171
tp5673
a(I34
g35
tp5674
a(I19
g271
tp5675
a(I56
g271
tp5676
a(I22
g385
tp5677
a(I25
g12
tp5678
a(I26
g114
tp5679
a(I27
g21
tp5680
a(I28
g35
tp5681
as(S'1323051502'
p5682
g297
g298
g138
tp5683
(lp5684
(I271
g21
tp5685
a(I219
g83
tp5686
a(I213
g10
tp5687
a(I214
g30
tp5688
a(I220
g17
tp5689
as(S'1323054445'
p5690
S'37.8780067'
p5691
S'-122.2597027'
p5692
g138
tp5693
(lp5694
(I35
g98
tp5695
a(I37
g129
tp5696
a(I53
g149
tp5697
a(I38
g37
tp5698
a(I50
g64
tp5699
a(I52
g171
tp5700
a(I42
g303
tp5701
a(I43
g83
tp5702
a(I44
g15
tp5703
a(I46
g32
tp5704
as(S'1323050567'
p5705
S'42.3679109'
p5706
S'-71.1154782'
p5707
g42
tp5708
(lp5709
(I219
g98
tp5710
a(I214
g141
tp5711
a(I213
g114
tp5712
a(I185
g163
tp5713
a(I191
g30
tp5714
a(I220
g116
tp5715
as(S'1323051818'
p5716
g481
g482
g192
tp5717
(lp5718
(I224
g32
tp5719
a(I223
g174
tp5720
a(I219
g303
tp5721
a(I214
g12
tp5722
a(I213
g64
tp5723
a(I185
g32
tp5724
a(I220
g30
tp5725
as(S'1323053252'
p5726
g937
g938
g939
tp5727
(lp5728
(I266
g49
tp5729
as(S'1323045460'
p5730
g1713
g1714
g138
tp5731
(lp5732
(I31
g32
tp5733
as(S'1323042036'
p5734
g4989
S'-122.1575620'
p5735
g95
tp5736
(lp5737
(I89
g245
tp5738
a(I90
g163
tp5739
a(I91
g141
tp5740
as(S'1323041150'
p5741
S'37.4229910'
p5742
S'-122.1575897'
p5743
g179
tp5744
(lp5745
(I89
g447
tp5746
a(I90
g12
tp5747
a(I94
g163
tp5748
a(I91
g303
tp5749
as(S'1323041399'
p5750
S'37.4229952'
p5751
S'-122.1575950'
p5752
g1110
tp5753
(lp5754
(I89
g1294
tp5755
a(I90
g288
tp5756
a(I94
g30
tp5757
a(I91
g182
tp5758
as(S'1323051231'
p5759
g481
g482
g192
tp5760
(lp5761
(I223
g174
tp5762
a(I219
g261
tp5763
a(I214
g163
tp5764
a(I213
g149
tp5765
a(I185
g32
tp5766
a(I226
g86
tp5767
a(I220
g64
tp5768
a(I191
g171
tp5769
as(S'1323039573'
p5770
S'52.9293412'
p5771
S'-1.2165884'
p5772
g257
tp5773
(lp5774
(I11
g62
tp5775
a(I12
g288
tp5776
a(I16
g288
tp5777
a(I14
g10
tp5778
a(I13
g10
tp5779
a(I57
g236
tp5780
a(I15
g114
tp5781
a(I17
g163
tp5782
a(I24
g35
tp5783
a(I34
g88
tp5784
a(I21
g88
tp5785
a(I63
g125
tp5786
a(I59
g385
tp5787
a(I19
g385
tp5788
a(I83
g433
tp5789
a(I56
g433
tp5790
a(I22
g433
tp5791
a(I58
g433
tp5792
a(I25
g114
tp5793
a(I26
g17
tp5794
a(I28
g19
tp5795
a(I27
g19
tp5796
a(I86
g433
tp5797
a(I61
g433
tp5798
as(S'1323050891'
p5799
S'42.3680277'
p5800
S'-71.1154978'
p5801
g121
tp5802
(lp5803
(I224
g19
tp5804
a(I219
g182
tp5805
a(I214
g288
tp5806
a(I213
g64
tp5807
a(I185
g163
tp5808
a(I220
g114
tp5809
a(I191
g21
tp5810
as(S'1323041976'
p5811
S'37.4229919'
p5812
S'-122.1575631'
p5813
g493
tp5814
(lp5815
(I89
g968
tp5816
a(I90
g52
tp5817
a(I91
g435
tp5818
as(S'1323050065'
p5819
S'42.3681622'
p5820
S'-71.1153793'
p5821
g121
tp5822
(lp5823
(I189
g149
tp5824
a(I215
g236
tp5825
a(I182
g303
tp5826
a(I185
g62
tp5827
a(I192
g83
tp5828
a(I198
g15
tp5829
a(I195
g15
tp5830
a(I216
g236
tp5831
a(I186
g64
tp5832
a(I244
g114
tp5833
a(I248
g30
tp5834
a(I245
g37
tp5835
a(I241
g37
tp5836
a(I188
g236
tp5837
a(I250
g21
tp5838
a(I204
g37
tp5839
a(I242
g271
tp5840
as(S'1323036438'
p5841
S'37.8780458'
p5842
S'-122.2597435'
p5843
g138
tp5844
(lp5845
(I35
g98
tp5846
a(I37
g64
tp5847
a(I39
g30
tp5848
a(I50
g19
tp5849
a(I41
g21
tp5850
a(I42
g52
tp5851
a(I43
g236
tp5852
a(I44
g236
tp5853
a(I51
g174
tp5854
a(I45
g21
tp5855
a(I47
g88
tp5856
as(S'1323042066'
p5857
S'37.4229409'
p5858
S'-122.1575986'
p5859
g59
tp5860
(lp5861
(I91
g26
tp5862
a(I89
g182
tp5863
a(I90
g10
tp5864
a(I94
g30
tp5865
a(I95
g86
tp5866
a(I100
g19
tp5867
a(I93
g86
tp5868
as(S'1323041901'
p5869
S'37.4229757'
p5870
S'-122.1575898'
p5871
g2212
tp5872
(lp5873
(I89
g26
tp5874
a(I91
g81
tp5875
a(I90
g12
tp5876
a(I100
g37
tp5877
a(I93
g17
tp5878
as(S'1323050474'
p5879
S'42.3678621'
p5880
S'-71.1154177'
p5881
g42
tp5882
(lp5883
(I221
g19
tp5884
a(I223
g171
tp5885
a(I219
g447
tp5886
a(I214
g261
tp5887
a(I185
g30
tp5888
a(I213
g149
tp5889
a(I191
g32
tp5890
a(I220
g141
tp5891
as(S'1323042442'
p5892
g3055
S'-122.1575869'
p5893
g179
tp5894
(lp5895
(I89
g98
tp5896
a(I90
g17
tp5897
a(I94
g32
tp5898
a(I91
g525
tp5899
as(S'1323051487'
p5900
g297
g298
g138
tp5901
(lp5902
(I219
g83
tp5903
a(I213
g10
tp5904
a(I214
g236
tp5905
a(I185
g30
tp5906
a(I220
g64
tp5907
as(S'1323047708'
p5908
S'37.4229534'
p5909
S'-122.1575378'
p5910
g4652
tp5911
(lp5912
(I97
g236
tp5913
a(I89
g223
tp5914
a(I91
g10
tp5915
a(I96
g17
tp5916
a(I90
g30
tp5917
a(I95
g32
tp5918
a(I94
g37
tp5919
a(I137
g86
tp5920
a(I104
g114
tp5921
as(S'1323041444'
p5922
S'37.4229568'
p5923
S'-122.1575517'
p5924
g192
tp5925
(lp5926
(I89
g223
tp5927
a(I91
g26
tp5928
a(I90
g10
tp5929
a(I93
g32
tp5930
as(S'1323041856'
p5931
S'37.4229525'
p5932
S'-122.1575520'
p5933
g554
tp5934
(lp5935
(I89
g447
tp5936
a(I91
g141
tp5937
a(I90
g32
tp5938
a(I95
g37
tp5939
as(S'1323049630'
p5940
S'42.3681332'
p5941
S'-71.1156450'
p5942
g42
tp5943
(lp5944
(I220
g182
tp5945
a(I219
g141
tp5946
a(I214
g145
tp5947
a(I185
g52
tp5948
a(I191
g17
tp5949
a(I213
g86
tp5950
a(I227
g86
tp5951
as(S'1323050952'
p5952
g481
g482
g192
tp5953
(lp5954
(I221
g88
tp5955
a(I224
g88
tp5956
a(I219
g261
tp5957
a(I214
g52
tp5958
a(I213
g236
tp5959
a(I185
g17
tp5960
a(I226
g17
tp5961
a(I220
g30
tp5962
a(I191
g19
tp5963
as(S'1323051728'
p5964
g481
g482
g192
tp5965
(lp5966
(I221
g174
tp5967
a(I213
g159
tp5968
a(I219
g114
tp5969
a(I214
g149
tp5970
a(I185
g32
tp5971
a(I220
g37
tp5972
as(S'1323054450'
p5973
g937
g938
g939
tp5974
(lp5975
(I266
g116
tp5976
as(S'1323040514'
p5977
S'37.4229959'
p5978
S'-122.1575902'
p5979
g1110
tp5980
(lp5981
(I91
g47
tp5982
a(I89
g447
tp5983
a(I92
g17
tp5984
a(I94
g149
tp5985
a(I95
g19
tp5986
as(S'1323049189'
p5987
S'37.4230122'
p5988
S'-122.1571432'
p5989
g465
tp5990
(lp5991
(I97
g114
tp5992
a(I139
g157
tp5993
a(I91
g10
tp5994
a(I104
g149
tp5995
a(I97
g114
tp5996
a(I139
g157
tp5997
a(I91
g10
tp5998
a(I104
g149
tp5999
as(S'1323052048'
p6000
S'37.8780764'
p6001
S'-122.2597791'
p6002
g70
tp6003
(lp6004
(I35
g47
tp6005
a(I50
g163
tp6006
a(I52
g149
tp6007
a(I54
g37
tp6008
a(I36
g86
tp6009
a(I37
g129
tp6010
a(I40
g19
tp6011
a(I87
g21
tp6012
a(I42
g141
tp6013
a(I44
g127
tp6014
a(I43
g10
tp6015
a(I51
g35
tp6016
a(I48
g86
tp6017
a(I88
g86
tp6018
a(I35
g47
tp6019
a(I50
g163
tp6020
a(I52
g149
tp6021
a(I54
g37
tp6022
a(I36
g86
tp6023
a(I37
g129
tp6024
a(I40
g19
tp6025
a(I87
g21
tp6026
a(I42
g141
tp6027
a(I44
g127
tp6028
a(I43
g10
tp6029
a(I51
g35
tp6030
a(I48
g86
tp6031
a(I88
g86
tp6032
a(I35
g47
tp6033
a(I50
g163
tp6034
a(I52
g149
tp6035
a(I54
g37
tp6036
a(I36
g86
tp6037
a(I37
g129
tp6038
a(I40
g19
tp6039
a(I87
g21
tp6040
a(I42
g141
tp6041
a(I44
g127
tp6042
a(I43
g10
tp6043
a(I51
g35
tp6044
a(I48
g86
tp6045
a(I88
g86
tp6046
as(S'1323051447'
p6047
S'18.9637120'
p6048
S'72.8208669'
p6049
g1149
tp6050
(lp6051
(I62
g245
tp6052
a(I268
g86
tp6053
a(I269
g163
tp6054
as(S'1323044256'
p6055
S'39.3835307'
p6056
S'-76.4896449'
p6057
g257
tp6058
(lp6059
(I1
g245
tp6060
a(I7
g35
tp6061
a(I6
g385
tp6062
as(S'1323051109'
p6063
g481
g482
g192
tp6064
(lp6065
(I221
g21
tp6066
a(I213
g116
tp6067
a(I222
g52
tp6068
a(I219
g236
tp6069
a(I214
g236
tp6070
a(I220
g19
tp6071
as(S'1323050704'
p6072
S'42.3680007'
p6073
g5821
g42
tp6074
(lp6075
(I223
g174
tp6076
a(I219
g245
tp6077
a(I214
g141
tp6078
a(I213
g288
tp6079
a(I185
g52
tp6080
a(I191
g86
tp6081
a(I220
g28
tp6082
as(S'1323044350'
p6083
g397
g398
g138
tp6084
(lp6085
(I31
g37
tp6086
a(I32
g174
tp6087
as(S'1323041120'
p6088
S'37.4229877'
p6089
S'-122.1575882'
p6090
g179
tp6091
(lp6092
(I89
g447
tp6093
a(I90
g10
tp6094
a(I94
g32
tp6095
a(I102
g37
tp6096
a(I91
g116
tp6097
as(S'1323049342'
p6098
S'42.3683826'
p6099
S'-71.1155169'
p6100
g42
tp6101
(lp6102
(I192
g62
tp6103
a(I185
g127
tp6104
a(I208
g236
tp6105
a(I195
g64
tp6106
a(I204
g288
tp6107
a(I190
g171
tp6108
as(S'1323046778'
p6109
g2060
g2061
g420
tp6110
(lp6111
(I11
g182
tp6112
a(I14
g28
tp6113
a(I16
g15
tp6114
a(I13
g15
tp6115
a(I57
g114
tp6116
a(I15
g17
tp6117
a(I17
g30
tp6118
a(I24
g37
tp6119
a(I56
g88
tp6120
a(I34
g88
tp6121
a(I19
g174
tp6122
a(I22
g271
tp6123
a(I23
g125
tp6124
a(I21
g125
tp6125
a(I63
g125
tp6126
a(I25
g30
tp6127
a(I26
g37
tp6128
a(I27
g271
tp6129
a(I28
g385
tp6130
as(S'1323050381'
p6131
S'42.3680324'
p6132
S'-71.1158926'
p6133
g42
tp6134
(lp6135
(I185
g127
tp6136
a(I219
g10
tp6137
a(I214
g52
tp6138
a(I213
g30
tp6139
a(I191
g32
tp6140
a(I209
g32
tp6141
a(I211
g86
tp6142
a(I220
g149
tp6143
as(S'1323040448'
p6144
S'37.4229982'
p6145
S'-122.1575681'
p6146
g59
tp6147
(lp6148
(I89
g116
tp6149
a(I90
g163
tp6150
a(I91
g261
tp6151
a(I92
g35
tp6152
as(S'1323040637'
p6153
S'37.4229852'
p6154
S'-122.1575867'
p6155
g179
tp6156
(lp6157
(I89
g1294
tp6158
a(I91
g447
tp6159
a(I90
g15
tp6160
a(I94
g114
tp6161
a(I95
g149
tp6162
as(S'1323041105'
p6163
S'37.4229933'
p6164
S'-122.1575672'
p6165
g493
tp6166
(lp6167
(I89
g1463
tp6168
a(I90
g15
tp6169
a(I91
g303
tp6170
as(S'1323043056'
p6171
S'39.3836357'
p6172
S'-76.4896410'
p6173
S'8'
tp6174
(lp6175
(I1
g141
tp6176
a(I2
g149
tp6177
a(I33
g433
tp6178
a(I6
g125
tp6179
a(I7
g125
tp6180
a(I4
g433
tp6181
as(S'1323051185'
p6182
g481
g482
g192
tp6183
(lp6184
(I221
g88
tp6185
a(I219
g303
tp6186
a(I214
g129
tp6187
a(I213
g288
tp6188
a(I191
g17
tp6189
a(I220
g15
tp6190
as(S'1323041515'
p6191
S'37.4230018'
p6192
S'-122.1575648'
p6193
g4980
tp6194
(lp6195
(I89
g73
tp6196
a(I90
g114
tp6197
a(I91
g81
tp6198
as(S'1323052180'
p6199
S'52.9293558'
p6200
S'-1.2164118'
p6201
g420
tp6202
(lp6203
(I11
g303
tp6204
a(I13
g83
tp6205
a(I14
g288
tp6206
a(I16
g52
tp6207
a(I15
g163
tp6208
a(I17
g17
tp6209
a(I57
g30
tp6210
a(I34
g171
tp6211
a(I24
g35
tp6212
a(I21
g35
tp6213
a(I19
g174
tp6214
a(I22
g174
tp6215
a(I63
g174
tp6216
a(I20
g271
tp6217
a(I56
g125
tp6218
a(I23
g385
tp6219
a(I59
g433
tp6220
a(I25
g114
tp6221
a(I26
g30
tp6222
a(I28
g21
tp6223
a(I27
g35
tp6224
as(S'1323040150'
p6225
g1713
g1714
g138
tp6226
(lp6227
(I31
g12
tp6228
as(S'1323050252'
p6229
S'42.3682265'
p6230
S'-71.1153703'
p6231
g338
tp6232
(lp6233
(I208
g62
tp6234
a(I192
g261
tp6235
a(I185
g83
tp6236
a(I209
g17
tp6237
a(I191
g149
tp6238
a(I226
g37
tp6239
a(I204
g86
tp6240
a(I194
g19
tp6241
as(S'1323051947'
p6242
g481
g482
g192
tp6243
(lp6244
(I211
g62
tp6245
a(I213
g157
tp6246
a(I192
g114
tp6247
a(I191
g149
tp6248
a(I212
g12
tp6249
as(S'1323040775'
p6250
g618
g619
g420
tp6251
(lp6252
(I11
g145
tp6253
a(I13
g127
tp6254
a(I14
g10
tp6255
a(I12
g12
tp6256
a(I16
g12
tp6257
a(I57
g163
tp6258
a(I17
g149
tp6259
a(I15
g86
tp6260
a(I34
g171
tp6261
a(I24
g88
tp6262
a(I22
g174
tp6263
a(I19
g125
tp6264
a(I56
g125
tp6265
a(I21
g125
tp6266
a(I26
g32
tp6267
a(I25
g32
tp6268
a(I28
g88
tp6269
a(I27
g174
tp6270
as(S'1323048297'
p6271
S'42.3679719'
p6272
S'-71.1153949'
p6273
g338
tp6274
(lp6275
(I162
g64
tp6276
a(I163
g10
tp6277
a(I164
g10
tp6278
a(I165
g15
tp6279
a(I166
g64
tp6280
a(I167
g163
tp6281
a(I168
g163
tp6282
a(I169
g37
tp6283
a(I170
g37
tp6284
a(I171
g81
tp6285
a(I172
g17
tp6286
a(I173
g64
tp6287
a(I174
g271
tp6288
as(S'1323049654'
p6289
S'42.3679429'
p6290
S'-71.1157091'
p6291
g42
tp6292
(lp6293
(I221
g37
tp6294
a(I223
g86
tp6295
a(I219
g245
tp6296
a(I214
g129
tp6297
a(I213
g15
tp6298
a(I185
g17
tp6299
a(I220
g12
tp6300
as(S'1323049217'
p6301
S'42.3683368'
p6302
S'-71.1158260'
p6303
g338
tp6304
(lp6305
(I192
g261
tp6306
a(I209
g12
tp6307
a(I195
g15
tp6308
a(I190
g236
tp6309
a(I185
g64
tp6310
a(I208
g163
tp6311
a(I191
g149
tp6312
a(I204
g28
tp6313
as(S'1323050169'
p6314
S'42.3684139'
p6315
S'-71.1155356'
p6316
g42
tp6317
(lp6318
(I185
g496
tp6319
a(I204
g145
tp6320
a(I195
g129
tp6321
a(I192
g52
tp6322
a(I182
g64
tp6323
a(I190
g30
tp6324
a(I194
g30
tp6325
a(I188
g19
tp6326
as(S'1323048458'
p6327
g1713
g1714
g138
tp6328
(lp6329
(I31
g32
tp6330
as(S'1323050323'
p6331
S'42.3679266'
p6332
S'-71.1157606'
p6333
g42
tp6334
(lp6335
(I221
g171
tp6336
a(I219
g52
tp6337
a(I213
g236
tp6338
a(I214
g30
tp6339
a(I220
g17
tp6340
as(S'1323049934'
p6341
S'42.3684614'
p6342
S'-71.1154574'
p6343
g338
tp6344
(lp6345
(I192
g245
tp6346
a(I208
g157
tp6347
a(I195
g261
tp6348
a(I204
g288
tp6349
a(I185
g15
tp6350
a(I183
g64
tp6351
a(I209
g37
tp6352
a(I234
g86
tp6353
a(I190
g19
tp6354
a(I182
g171
tp6355
a(I187
g21
tp6356
a(I188
g37
tp6357
a(I211
g37
tp6358
as(S'1323054448'
p6359
g1147
g1148
g1149
tp6360
(lp6361
(I62
g73
tp6362
as.